

Microchip MPLAB XC8 Assembler V2.10 build 88905656 
                                                                                               Mon Apr 13 11:06:50 2020

Microchip MPLAB XC8 C Compiler v2.10 (Free license) build 20190730164152 Og1 
     1                           	processor	16F1824
     2                           	opt	pw 120
     3                           	opt	flic
     4                           	psect	idataBANK0,global,class=CODE,delta=2
     5                           	psect	cinit,global,class=CODE,merge=1,delta=2
     6                           	psect	bssBANK0,global,class=BANK0,space=1,delta=1
     7                           	psect	dataBANK0,global,class=BANK0,space=1,delta=1
     8                           	psect	inittext,global,class=CODE,delta=2
     9                           	psect	clrtext,global,class=CODE,delta=2
    10                           	psect	cstackCOMMON,global,class=COMMON,space=1,delta=1
    11                           	psect	cstackBANK0,global,class=BANK0,space=1,delta=1
    12                           	psect	maintext,global,class=CODE,merge=1,split=1,delta=2
    13                           	psect	text1,local,class=CODE,merge=1,delta=2
    14                           	psect	text2,local,class=CODE,merge=1,delta=2
    15                           	psect	text3,local,class=CODE,merge=1,delta=2,group=1
    16                           	psect	text4,local,class=CODE,merge=1,delta=2,group=1
    17                           	psect	text5,local,class=CODE,merge=1,delta=2
    18                           	psect	text6,local,class=CODE,merge=1,delta=2
    19                           	psect	text7,local,class=CODE,merge=1,delta=2
    20                           	psect	text8,local,class=CODE,merge=1,delta=2
    21                           	psect	text9,local,class=CODE,merge=1,delta=2
    22                           	psect	text10,local,class=CODE,merge=1,delta=2
    23                           	psect	text11,local,class=CODE,merge=1,delta=2
    24                           	psect	text12,local,class=CODE,merge=1,delta=2
    25                           	psect	text13,local,class=CODE,merge=1,delta=2
    26                           	psect	text14,local,class=CODE,merge=1,delta=2
    27                           	psect	text15,local,class=CODE,merge=1,delta=2
    28                           	psect	text16,local,class=CODE,merge=1,delta=2
    29                           	psect	text17,local,class=CODE,merge=1,delta=2
    30                           	psect	text18,local,class=CODE,merge=1,delta=2
    31                           	psect	text19,local,class=CODE,merge=1,delta=2
    32                           	psect	text20,local,class=CODE,merge=1,delta=2
    33                           	psect	text21,local,class=CODE,merge=1,delta=2
    34                           	psect	text22,local,class=CODE,merge=1,delta=2
    35                           	psect	text23,local,class=CODE,merge=1,delta=2
    36                           	psect	text24,local,class=CODE,merge=1,delta=2
    37                           	psect	text25,local,class=CODE,merge=1,delta=2,group=1
    38                           	psect	text26,local,class=CODE,merge=1,delta=2,group=1
    39                           	psect	intentry,global,class=CODE,delta=2
    40                           	dabs	1,0x7E,2
    41  0000                     
    42                           ; Version 2.10
    43                           ; Generated 31/07/2019 GMT
    44                           ; 
    45                           ; Copyright © 2019, Microchip Technology Inc. and its subsidiaries ("Microchip")
    46                           ; All rights reserved.
    47                           ; 
    48                           ; This software is developed by Microchip Technology Inc. and its subsidiaries ("Microch
      +                          ip").
    49                           ; 
    50                           ; Redistribution and use in source and binary forms, with or without modification, are
    51                           ; permitted provided that the following conditions are met:
    52                           ; 
    53                           ;     1. Redistributions of source code must retain the above copyright notice, this lis
      +                          t of
    54                           ;        conditions and the following disclaimer.
    55                           ; 
    56                           ;     2. Redistributions in binary form must reproduce the above copyright notice, this 
      +                          list
    57                           ;        of conditions and the following disclaimer in the documentation and/or other
    58                           ;        materials provided with the distribution.
    59                           ; 
    60                           ;     3. Microchip's name may not be used to endorse or promote products derived from th
      +                          is
    61                           ;        software without specific prior written permission.
    62                           ; 
    63                           ; THIS SOFTWARE IS PROVIDED BY MICROCHIP "AS IS" AND ANY EXPRESS OR IMPLIED WARRANTIES,
    64                           ; INCLUDING, BUT NOT LIMITED TO, THE IMPLIED WARRANTIES OF MERCHANTABILITY AND FITNESS F
      +                          OR
    65                           ; PURPOSE ARE DISCLAIMED.  IN NO EVENT SHALL MICROCHIP BE LIABLE FOR ANY DIRECT, INDIREC
      +                          T,
    66                           ; INCIDENTAL, SPECIAL, EXEMPLARY, OR CONSEQUENTIAL DAMAGES (INCLUDING BUT NOT LIMITED TO
    67                           ; PROCUREMENT OF SUBSTITUTE GOODS OR SERVICES; LOSS OF USE, DATA OR PROFITS; OR BUSINESS
    68                           ; INTERRUPTION) HOWSOEVER CAUSED AND ON ANY THEORY OF LIABILITY, WHETHER IN CONTRACT, ST
      +                          RICT
    69                           ; LIABILITY, OR TORT (INCLUDING NEGLIGENCE OR OTHERWISE) ARISING IN ANY WAY OUT OF THE U
      +                          SE OF
    70                           ; THIS SOFTWARE, EVEN IF ADVISED OF THE POSSIBILITY OF SUCH DAMAGE.
    71                           ; 
    72                           ; 
    73                           ; Code-generator required, PIC16F1824 Definitions
    74                           ; 
    75                           ; SFR Addresses
    76  0000                     	;# 
    77  0001                     	;# 
    78  0002                     	;# 
    79  0003                     	;# 
    80  0004                     	;# 
    81  0005                     	;# 
    82  0006                     	;# 
    83  0007                     	;# 
    84  0008                     	;# 
    85  0009                     	;# 
    86  000A                     	;# 
    87  000B                     	;# 
    88  000C                     	;# 
    89  000E                     	;# 
    90  0011                     	;# 
    91  0012                     	;# 
    92  0013                     	;# 
    93  0015                     	;# 
    94  0016                     	;# 
    95  0016                     	;# 
    96  0017                     	;# 
    97  0018                     	;# 
    98  0019                     	;# 
    99  001A                     	;# 
   100  001B                     	;# 
   101  001C                     	;# 
   102  001E                     	;# 
   103  001F                     	;# 
   104  008C                     	;# 
   105  008E                     	;# 
   106  0091                     	;# 
   107  0092                     	;# 
   108  0093                     	;# 
   109  0095                     	;# 
   110  0096                     	;# 
   111  0097                     	;# 
   112  0098                     	;# 
   113  0099                     	;# 
   114  009A                     	;# 
   115  009B                     	;# 
   116  009B                     	;# 
   117  009C                     	;# 
   118  009D                     	;# 
   119  009E                     	;# 
   120  010C                     	;# 
   121  010E                     	;# 
   122  0111                     	;# 
   123  0112                     	;# 
   124  0113                     	;# 
   125  0114                     	;# 
   126  0115                     	;# 
   127  0116                     	;# 
   128  0117                     	;# 
   129  0118                     	;# 
   130  0119                     	;# 
   131  011A                     	;# 
   132  011B                     	;# 
   133  011D                     	;# 
   134  011E                     	;# 
   135  018C                     	;# 
   136  018E                     	;# 
   137  0191                     	;# 
   138  0191                     	;# 
   139  0192                     	;# 
   140  0193                     	;# 
   141  0193                     	;# 
   142  0193                     	;# 
   143  0194                     	;# 
   144  0195                     	;# 
   145  0196                     	;# 
   146  0199                     	;# 
   147  019A                     	;# 
   148  019B                     	;# 
   149  019B                     	;# 
   150  019B                     	;# 
   151  019B                     	;# 
   152  019C                     	;# 
   153  019C                     	;# 
   154  019D                     	;# 
   155  019E                     	;# 
   156  019F                     	;# 
   157  020C                     	;# 
   158  020E                     	;# 
   159  0211                     	;# 
   160  0211                     	;# 
   161  0212                     	;# 
   162  0212                     	;# 
   163  0213                     	;# 
   164  0213                     	;# 
   165  0214                     	;# 
   166  0214                     	;# 
   167  0215                     	;# 
   168  0215                     	;# 
   169  0215                     	;# 
   170  0215                     	;# 
   171  0216                     	;# 
   172  0216                     	;# 
   173  0217                     	;# 
   174  0217                     	;# 
   175  0291                     	;# 
   176  0291                     	;# 
   177  0292                     	;# 
   178  0293                     	;# 
   179  0294                     	;# 
   180  0295                     	;# 
   181  0295                     	;# 
   182  0296                     	;# 
   183  0298                     	;# 
   184  0298                     	;# 
   185  0299                     	;# 
   186  029A                     	;# 
   187  029B                     	;# 
   188  029C                     	;# 
   189  029D                     	;# 
   190  029E                     	;# 
   191  029E                     	;# 
   192  0311                     	;# 
   193  0311                     	;# 
   194  0312                     	;# 
   195  0313                     	;# 
   196  0318                     	;# 
   197  0318                     	;# 
   198  0319                     	;# 
   199  031A                     	;# 
   200  038C                     	;# 
   201  038E                     	;# 
   202  0391                     	;# 
   203  0392                     	;# 
   204  0393                     	;# 
   205  039A                     	;# 
   206  039C                     	;# 
   207  039D                     	;# 
   208  039E                     	;# 
   209  039F                     	;# 
   210  0415                     	;# 
   211  0416                     	;# 
   212  0417                     	;# 
   213  041C                     	;# 
   214  041D                     	;# 
   215  041E                     	;# 
   216  0FE4                     	;# 
   217  0FE5                     	;# 
   218  0FE6                     	;# 
   219  0FE7                     	;# 
   220  0FE8                     	;# 
   221  0FE9                     	;# 
   222  0FEA                     	;# 
   223  0FEB                     	;# 
   224  0FED                     	;# 
   225  0FEE                     	;# 
   226  0FEF                     	;# 
   227  0000                     	;# 
   228  0001                     	;# 
   229  0002                     	;# 
   230  0003                     	;# 
   231  0004                     	;# 
   232  0005                     	;# 
   233  0006                     	;# 
   234  0007                     	;# 
   235  0008                     	;# 
   236  0009                     	;# 
   237  000A                     	;# 
   238  000B                     	;# 
   239  000C                     	;# 
   240  000E                     	;# 
   241  0011                     	;# 
   242  0012                     	;# 
   243  0013                     	;# 
   244  0015                     	;# 
   245  0016                     	;# 
   246  0016                     	;# 
   247  0017                     	;# 
   248  0018                     	;# 
   249  0019                     	;# 
   250  001A                     	;# 
   251  001B                     	;# 
   252  001C                     	;# 
   253  001E                     	;# 
   254  001F                     	;# 
   255  008C                     	;# 
   256  008E                     	;# 
   257  0091                     	;# 
   258  0092                     	;# 
   259  0093                     	;# 
   260  0095                     	;# 
   261  0096                     	;# 
   262  0097                     	;# 
   263  0098                     	;# 
   264  0099                     	;# 
   265  009A                     	;# 
   266  009B                     	;# 
   267  009B                     	;# 
   268  009C                     	;# 
   269  009D                     	;# 
   270  009E                     	;# 
   271  010C                     	;# 
   272  010E                     	;# 
   273  0111                     	;# 
   274  0112                     	;# 
   275  0113                     	;# 
   276  0114                     	;# 
   277  0115                     	;# 
   278  0116                     	;# 
   279  0117                     	;# 
   280  0118                     	;# 
   281  0119                     	;# 
   282  011A                     	;# 
   283  011B                     	;# 
   284  011D                     	;# 
   285  011E                     	;# 
   286  018C                     	;# 
   287  018E                     	;# 
   288  0191                     	;# 
   289  0191                     	;# 
   290  0192                     	;# 
   291  0193                     	;# 
   292  0193                     	;# 
   293  0193                     	;# 
   294  0194                     	;# 
   295  0195                     	;# 
   296  0196                     	;# 
   297  0199                     	;# 
   298  019A                     	;# 
   299  019B                     	;# 
   300  019B                     	;# 
   301  019B                     	;# 
   302  019B                     	;# 
   303  019C                     	;# 
   304  019C                     	;# 
   305  019D                     	;# 
   306  019E                     	;# 
   307  019F                     	;# 
   308  020C                     	;# 
   309  020E                     	;# 
   310  0211                     	;# 
   311  0211                     	;# 
   312  0212                     	;# 
   313  0212                     	;# 
   314  0213                     	;# 
   315  0213                     	;# 
   316  0214                     	;# 
   317  0214                     	;# 
   318  0215                     	;# 
   319  0215                     	;# 
   320  0215                     	;# 
   321  0215                     	;# 
   322  0216                     	;# 
   323  0216                     	;# 
   324  0217                     	;# 
   325  0217                     	;# 
   326  0291                     	;# 
   327  0291                     	;# 
   328  0292                     	;# 
   329  0293                     	;# 
   330  0294                     	;# 
   331  0295                     	;# 
   332  0295                     	;# 
   333  0296                     	;# 
   334  0298                     	;# 
   335  0298                     	;# 
   336  0299                     	;# 
   337  029A                     	;# 
   338  029B                     	;# 
   339  029C                     	;# 
   340  029D                     	;# 
   341  029E                     	;# 
   342  029E                     	;# 
   343  0311                     	;# 
   344  0311                     	;# 
   345  0312                     	;# 
   346  0313                     	;# 
   347  0318                     	;# 
   348  0318                     	;# 
   349  0319                     	;# 
   350  031A                     	;# 
   351  038C                     	;# 
   352  038E                     	;# 
   353  0391                     	;# 
   354  0392                     	;# 
   355  0393                     	;# 
   356  039A                     	;# 
   357  039C                     	;# 
   358  039D                     	;# 
   359  039E                     	;# 
   360  039F                     	;# 
   361  0415                     	;# 
   362  0416                     	;# 
   363  0417                     	;# 
   364  041C                     	;# 
   365  041D                     	;# 
   366  041E                     	;# 
   367  0FE4                     	;# 
   368  0FE5                     	;# 
   369  0FE6                     	;# 
   370  0FE7                     	;# 
   371  0FE8                     	;# 
   372  0FE9                     	;# 
   373  0FEA                     	;# 
   374  0FEB                     	;# 
   375  0FED                     	;# 
   376  0FEE                     	;# 
   377  0FEF                     	;# 
   378  0000                     	;# 
   379  0001                     	;# 
   380  0002                     	;# 
   381  0003                     	;# 
   382  0004                     	;# 
   383  0005                     	;# 
   384  0006                     	;# 
   385  0007                     	;# 
   386  0008                     	;# 
   387  0009                     	;# 
   388  000A                     	;# 
   389  000B                     	;# 
   390  000C                     	;# 
   391  000E                     	;# 
   392  0011                     	;# 
   393  0012                     	;# 
   394  0013                     	;# 
   395  0015                     	;# 
   396  0016                     	;# 
   397  0016                     	;# 
   398  0017                     	;# 
   399  0018                     	;# 
   400  0019                     	;# 
   401  001A                     	;# 
   402  001B                     	;# 
   403  001C                     	;# 
   404  001E                     	;# 
   405  001F                     	;# 
   406  008C                     	;# 
   407  008E                     	;# 
   408  0091                     	;# 
   409  0092                     	;# 
   410  0093                     	;# 
   411  0095                     	;# 
   412  0096                     	;# 
   413  0097                     	;# 
   414  0098                     	;# 
   415  0099                     	;# 
   416  009A                     	;# 
   417  009B                     	;# 
   418  009B                     	;# 
   419  009C                     	;# 
   420  009D                     	;# 
   421  009E                     	;# 
   422  010C                     	;# 
   423  010E                     	;# 
   424  0111                     	;# 
   425  0112                     	;# 
   426  0113                     	;# 
   427  0114                     	;# 
   428  0115                     	;# 
   429  0116                     	;# 
   430  0117                     	;# 
   431  0118                     	;# 
   432  0119                     	;# 
   433  011A                     	;# 
   434  011B                     	;# 
   435  011D                     	;# 
   436  011E                     	;# 
   437  018C                     	;# 
   438  018E                     	;# 
   439  0191                     	;# 
   440  0191                     	;# 
   441  0192                     	;# 
   442  0193                     	;# 
   443  0193                     	;# 
   444  0193                     	;# 
   445  0194                     	;# 
   446  0195                     	;# 
   447  0196                     	;# 
   448  0199                     	;# 
   449  019A                     	;# 
   450  019B                     	;# 
   451  019B                     	;# 
   452  019B                     	;# 
   453  019B                     	;# 
   454  019C                     	;# 
   455  019C                     	;# 
   456  019D                     	;# 
   457  019E                     	;# 
   458  019F                     	;# 
   459  020C                     	;# 
   460  020E                     	;# 
   461  0211                     	;# 
   462  0211                     	;# 
   463  0212                     	;# 
   464  0212                     	;# 
   465  0213                     	;# 
   466  0213                     	;# 
   467  0214                     	;# 
   468  0214                     	;# 
   469  0215                     	;# 
   470  0215                     	;# 
   471  0215                     	;# 
   472  0215                     	;# 
   473  0216                     	;# 
   474  0216                     	;# 
   475  0217                     	;# 
   476  0217                     	;# 
   477  0291                     	;# 
   478  0291                     	;# 
   479  0292                     	;# 
   480  0293                     	;# 
   481  0294                     	;# 
   482  0295                     	;# 
   483  0295                     	;# 
   484  0296                     	;# 
   485  0298                     	;# 
   486  0298                     	;# 
   487  0299                     	;# 
   488  029A                     	;# 
   489  029B                     	;# 
   490  029C                     	;# 
   491  029D                     	;# 
   492  029E                     	;# 
   493  029E                     	;# 
   494  0311                     	;# 
   495  0311                     	;# 
   496  0312                     	;# 
   497  0313                     	;# 
   498  0318                     	;# 
   499  0318                     	;# 
   500  0319                     	;# 
   501  031A                     	;# 
   502  038C                     	;# 
   503  038E                     	;# 
   504  0391                     	;# 
   505  0392                     	;# 
   506  0393                     	;# 
   507  039A                     	;# 
   508  039C                     	;# 
   509  039D                     	;# 
   510  039E                     	;# 
   511  039F                     	;# 
   512  0415                     	;# 
   513  0416                     	;# 
   514  0417                     	;# 
   515  041C                     	;# 
   516  041D                     	;# 
   517  041E                     	;# 
   518  0FE4                     	;# 
   519  0FE5                     	;# 
   520  0FE6                     	;# 
   521  0FE7                     	;# 
   522  0FE8                     	;# 
   523  0FE9                     	;# 
   524  0FEA                     	;# 
   525  0FEB                     	;# 
   526  0FED                     	;# 
   527  0FEE                     	;# 
   528  0FEF                     	;# 
   529  0000                     	;# 
   530  0001                     	;# 
   531  0002                     	;# 
   532  0003                     	;# 
   533  0004                     	;# 
   534  0005                     	;# 
   535  0006                     	;# 
   536  0007                     	;# 
   537  0008                     	;# 
   538  0009                     	;# 
   539  000A                     	;# 
   540  000B                     	;# 
   541  000C                     	;# 
   542  000E                     	;# 
   543  0011                     	;# 
   544  0012                     	;# 
   545  0013                     	;# 
   546  0015                     	;# 
   547  0016                     	;# 
   548  0016                     	;# 
   549  0017                     	;# 
   550  0018                     	;# 
   551  0019                     	;# 
   552  001A                     	;# 
   553  001B                     	;# 
   554  001C                     	;# 
   555  001E                     	;# 
   556  001F                     	;# 
   557  008C                     	;# 
   558  008E                     	;# 
   559  0091                     	;# 
   560  0092                     	;# 
   561  0093                     	;# 
   562  0095                     	;# 
   563  0096                     	;# 
   564  0097                     	;# 
   565  0098                     	;# 
   566  0099                     	;# 
   567  009A                     	;# 
   568  009B                     	;# 
   569  009B                     	;# 
   570  009C                     	;# 
   571  009D                     	;# 
   572  009E                     	;# 
   573  010C                     	;# 
   574  010E                     	;# 
   575  0111                     	;# 
   576  0112                     	;# 
   577  0113                     	;# 
   578  0114                     	;# 
   579  0115                     	;# 
   580  0116                     	;# 
   581  0117                     	;# 
   582  0118                     	;# 
   583  0119                     	;# 
   584  011A                     	;# 
   585  011B                     	;# 
   586  011D                     	;# 
   587  011E                     	;# 
   588  018C                     	;# 
   589  018E                     	;# 
   590  0191                     	;# 
   591  0191                     	;# 
   592  0192                     	;# 
   593  0193                     	;# 
   594  0193                     	;# 
   595  0193                     	;# 
   596  0194                     	;# 
   597  0195                     	;# 
   598  0196                     	;# 
   599  0199                     	;# 
   600  019A                     	;# 
   601  019B                     	;# 
   602  019B                     	;# 
   603  019B                     	;# 
   604  019B                     	;# 
   605  019C                     	;# 
   606  019C                     	;# 
   607  019D                     	;# 
   608  019E                     	;# 
   609  019F                     	;# 
   610  020C                     	;# 
   611  020E                     	;# 
   612  0211                     	;# 
   613  0211                     	;# 
   614  0212                     	;# 
   615  0212                     	;# 
   616  0213                     	;# 
   617  0213                     	;# 
   618  0214                     	;# 
   619  0214                     	;# 
   620  0215                     	;# 
   621  0215                     	;# 
   622  0215                     	;# 
   623  0215                     	;# 
   624  0216                     	;# 
   625  0216                     	;# 
   626  0217                     	;# 
   627  0217                     	;# 
   628  0291                     	;# 
   629  0291                     	;# 
   630  0292                     	;# 
   631  0293                     	;# 
   632  0294                     	;# 
   633  0295                     	;# 
   634  0295                     	;# 
   635  0296                     	;# 
   636  0298                     	;# 
   637  0298                     	;# 
   638  0299                     	;# 
   639  029A                     	;# 
   640  029B                     	;# 
   641  029C                     	;# 
   642  029D                     	;# 
   643  029E                     	;# 
   644  029E                     	;# 
   645  0311                     	;# 
   646  0311                     	;# 
   647  0312                     	;# 
   648  0313                     	;# 
   649  0318                     	;# 
   650  0318                     	;# 
   651  0319                     	;# 
   652  031A                     	;# 
   653  038C                     	;# 
   654  038E                     	;# 
   655  0391                     	;# 
   656  0392                     	;# 
   657  0393                     	;# 
   658  039A                     	;# 
   659  039C                     	;# 
   660  039D                     	;# 
   661  039E                     	;# 
   662  039F                     	;# 
   663  0415                     	;# 
   664  0416                     	;# 
   665  0417                     	;# 
   666  041C                     	;# 
   667  041D                     	;# 
   668  041E                     	;# 
   669  0FE4                     	;# 
   670  0FE5                     	;# 
   671  0FE6                     	;# 
   672  0FE7                     	;# 
   673  0FE8                     	;# 
   674  0FE9                     	;# 
   675  0FEA                     	;# 
   676  0FEB                     	;# 
   677  0FED                     	;# 
   678  0FEE                     	;# 
   679  0FEF                     	;# 
   680                           
   681                           	psect	idataBANK0
   682  07EA                     __pidataBANK0:	
   683                           
   684                           ;initializer for ___digitos_2
   685  07EA  34CF               	retlw	207
   686  07EB  3403               	retlw	3
   687  07EC  34AE               	retlw	174
   688  07ED  342F               	retlw	47
   689  07EE  3463               	retlw	99
   690  07EF  346D               	retlw	109
   691  07F0  34ED               	retlw	237
   692  07F1  340B               	retlw	11
   693  07F2  34EF               	retlw	239
   694  07F3  346F               	retlw	111
   695  07F4  3400               	retlw	0
   696                           
   697                           ;initializer for ___digitos_1
   698  07F5  34F5               	retlw	245
   699  07F6  3460               	retlw	96
   700  07F7  34B6               	retlw	182
   701  07F8  34F2               	retlw	242
   702  07F9  3463               	retlw	99
   703  07FA  34D3               	retlw	211
   704  07FB  34D7               	retlw	215
   705  07FC  3470               	retlw	112
   706  07FD  34F7               	retlw	247
   707  07FE  34F3               	retlw	243
   708  07FF  3400               	retlw	0
   709  0003                     _STATUSbits	set	3
   710  000B                     _INTCONbits	set	11
   711  0015                     _TMR0	set	21
   712  000E                     _PORTCbits	set	14
   713  000C                     _PORTAbits	set	12
   714  0095                     _OPTION_REGbits	set	149
   715  0099                     _OSCCONbits	set	153
   716  008C                     _TRISAbits	set	140
   717  008E                     _TRISCbits	set	142
   718  010C                     _LATAbits	set	268
   719  010E                     _LATCbits	set	270
   720  0191                     _EEADR	set	401
   721  0196                     _EECON2	set	406
   722  0193                     _EEDATA	set	403
   723  0195                     _EECON1	set	405
   724  0195                     _EECON1bits	set	405
   725                           
   726                           ; #config settings
   727  0000                     
   728                           	psect	cinit
   729  003A                     start_initialization:	
   730  003A                     __initialization:	
   731                           
   732                           ; Initialize objects allocated to BANK0
   733  003A  30EA               	movlw	low __pidataBANK0
   734  003B  0084               	movwf	4
   735  003C  3087               	movlw	(high __pidataBANK0)| (0+128)
   736  003D  0085               	movwf	5
   737  003E  3040               	movlw	low __pdataBANK0
   738  003F  0086               	movwf	6
   739  0040  3000               	movlw	high __pdataBANK0
   740  0041  0087               	movwf	7
   741  0042  3016               	movlw	22
   742  0043  318D  252E  3180   	fcall	init_ram
   743                           
   744                           ; Clear objects allocated to BANK0
   745  0046  3020               	movlw	low __pbssBANK0
   746  0047  0084               	movwf	4
   747  0048  3000               	movlw	high __pbssBANK0
   748  0049  0085               	movwf	5
   749  004A  3020               	movlw	32
   750  004B  318D  2528  3180   	fcall	clear_ram0
   751  004E                     end_of_initialization:	
   752                           ;End of C runtime variable initialization code
   753                           
   754  004E                     __end_of__initialization:	
   755  004E  107E               	bcf	int$flags,0	;clear compiler interrupt flag (level 1)
   756  004F  0020               	movlb	0
   757  0050  318E  2E24         	ljmp	_main	;jump to C main() function
   758                           
   759                           	psect	bssBANK0
   760  0020                     __pbssBANK0:	
   761  0020                     _k:	
   762  0020                     	ds	4
   763  0024                     myISR@f:	
   764  0024                     	ds	2
   765  0026                     _encendido:	
   766  0026                     	ds	2
   767  0028                     _veces_uso:	
   768  0028                     	ds	2
   769  002A                     _flag_segundos:	
   770  002A                     	ds	2
   771  002C                     _proceso:	
   772  002C                     	ds	2
   773  002E                     _last_segundos_temp:	
   774  002E                     	ds	2
   775  0030                     _last_minutos_temp:	
   776  0030                     	ds	2
   777  0032                     _segundos_temp:	
   778  0032                     	ds	2
   779  0034                     _minutos_temp:	
   780  0034                     	ds	2
   781  0036                     _segundos_set:	
   782  0036                     	ds	2
   783  0038                     _minutos_set:	
   784  0038                     	ds	2
   785  003A                     input_pulsador_ok@contador:	
   786  003A                     	ds	2
   787  003C                     input_pulsador_bajar@contador:	
   788  003C                     	ds	2
   789  003E                     input_pulsador_subir@contador:	
   790  003E                     	ds	2
   791                           
   792                           	psect	dataBANK0
   793  0040                     __pdataBANK0:	
   794  0040                     ___digitos_2:	
   795  0040                     	ds	11
   796  004B                     ___digitos_1:	
   797  004B                     	ds	11
   798                           
   799                           	psect	inittext
   800  0D2E                     init_ram:	
   801  0D2E  00FE               	movwf	btemp
   802  0D2F                     initloop:	
   803  0D2F  0012               	moviw fsr0++
   804  0D30  001E               	movwi fsr1++
   805  0D31  0BFE               	decfsz	btemp,f
   806  0D32  2D2F               	goto	initloop
   807  0D33  3400               	retlw	0
   808                           
   809                           	psect	clrtext
   810  0D28                     clear_ram0:	
   811                           ;	Called with FSR0 containing the base address, and
   812                           ;	WREG with the size to clear
   813                           
   814  0D28  0064               	clrwdt	;clear the watchdog before getting into this loop
   815  0D29                     clrloop0:	
   816  0D29  0180               	clrf	0	;clear RAM location pointed to by FSR
   817  0D2A  3101               	addfsr 0,1
   818  0D2B  0B89               	decfsz	9,f	;Have we reached the end of clearing yet?
   819  0D2C  2D29               	goto	clrloop0	;have we reached the end yet?
   820  0D2D  3400               	retlw	0	;all done for this memory range, return
   821                           
   822                           	psect	cstackCOMMON
   823  0070                     __pcstackCOMMON:	
   824  0070                     ?_oscillator_config:	
   825  0070                     ?_timer_0_config:	
   826                           ; 1 bytes @ 0x0
   827                           
   828  0070                     ?_update_eeprom:	
   829                           ; 1 bytes @ 0x0
   830                           
   831  0070                     ?_display_init:	
   832                           ; 1 bytes @ 0x0
   833                           
   834  0070                     ?_proceso_subir_bajar_tiempo:	
   835                           ; 1 bytes @ 0x0
   836                           
   837  0070                     ?_proceso_run:	
   838                           ; 1 bytes @ 0x0
   839                           
   840  0070                     ?_proceso_detenido:	
   841                           ; 1 bytes @ 0x0
   842                           
   843  0070                     ?_eeprom_read:	
   844                           ; 1 bytes @ 0x0
   845                           
   846  0070                     ?_max7219_config:	
   847                           ; 1 bytes @ 0x0
   848                           
   849  0070                     ?_input_config:	
   850                           ; 1 bytes @ 0x0
   851                           
   852  0070                     ?_output_config:	
   853                           ; 1 bytes @ 0x0
   854                           
   855  0070                     ?_main:	
   856                           ; 1 bytes @ 0x0
   857                           
   858  0070                     ?_timer_0_enable:	
   859                           ; 1 bytes @ 0x0
   860                           
   861  0070                     ?_timer_0_disable:	
   862                           ; 1 bytes @ 0x0
   863                           
   864  0070                     ?_myISR:	
   865                           ; 1 bytes @ 0x0
   866                           
   867  0070                     ??_myISR:	
   868                           ; 1 bytes @ 0x0
   869                           
   870                           
   871                           ; 1 bytes @ 0x0
   872  0070                     	ds	1
   873  0071                     ??_oscillator_config:	
   874  0071                     ??_timer_0_config:	
   875                           ; 1 bytes @ 0x1
   876                           
   877  0071                     ??_eeprom_read:	
   878                           ; 1 bytes @ 0x1
   879                           
   880  0071                     ?_eeprom_write:	
   881                           ; 1 bytes @ 0x1
   882                           
   883  0071                     ?___max7219_write:	
   884                           ; 1 bytes @ 0x1
   885                           
   886  0071                     ?_max7219_points:	
   887                           ; 1 bytes @ 0x1
   888                           
   889  0071                     ??_input_config:	
   890                           ; 1 bytes @ 0x1
   891                           
   892  0071                     ??_output_config:	
   893                           ; 1 bytes @ 0x1
   894                           
   895  0071                     ?_output_relay:	
   896                           ; 1 bytes @ 0x1
   897                           
   898  0071                     ??_timer_0_enable:	
   899                           ; 1 bytes @ 0x1
   900                           
   901  0071                     ??_timer_0_disable:	
   902                           ; 1 bytes @ 0x1
   903                           
   904  0071                     ?_input_pulsador_subir:	
   905                           ; 1 bytes @ 0x1
   906                           
   907  0071                     ?_input_pulsador_bajar:	
   908                           ; 2 bytes @ 0x1
   909                           
   910  0071                     ?_input_pulsador_ok:	
   911                           ; 2 bytes @ 0x1
   912                           
   913  0071                     ?___awdiv:	
   914                           ; 2 bytes @ 0x1
   915                           
   916  0071                     ?___awmod:	
   917                           ; 2 bytes @ 0x1
   918                           
   919  0071                     ?___lwmod:	
   920                           ; 2 bytes @ 0x1
   921                           
   922  0071                     eeprom_write@value:	
   923                           ; 2 bytes @ 0x1
   924                           
   925  0071                     ___max7219_write@address:	
   926                           ; 1 bytes @ 0x1
   927                           
   928  0071                     max7219_points@points:	
   929                           ; 2 bytes @ 0x1
   930                           
   931  0071                     output_relay@d:	
   932                           ; 2 bytes @ 0x1
   933                           
   934  0071                     ___awdiv@divisor:	
   935                           ; 2 bytes @ 0x1
   936                           
   937  0071                     ___awmod@divisor:	
   938                           ; 2 bytes @ 0x1
   939                           
   940  0071                     ___lwmod@divisor:	
   941                           ; 2 bytes @ 0x1
   942                           
   943                           
   944                           ; 2 bytes @ 0x1
   945  0071                     	ds	1
   946  0072                     ??_eeprom_write:	
   947                           
   948                           ; 1 bytes @ 0x2
   949  0072                     	ds	1
   950  0073                     ??_input_pulsador_subir:	
   951  0073                     ??_input_pulsador_bajar:	
   952                           ; 1 bytes @ 0x3
   953                           
   954  0073                     ??_input_pulsador_ok:	
   955                           ; 1 bytes @ 0x3
   956                           
   957  0073                     ??_output_relay:	
   958                           ; 1 bytes @ 0x3
   959                           
   960  0073                     ___max7219_write@data:	
   961                           ; 1 bytes @ 0x3
   962                           
   963  0073                     max7219_points@nivel:	
   964                           ; 2 bytes @ 0x3
   965                           
   966  0073                     ___awdiv@dividend:	
   967                           ; 2 bytes @ 0x3
   968                           
   969  0073                     ___awmod@dividend:	
   970                           ; 2 bytes @ 0x3
   971                           
   972  0073                     ___lwmod@dividend:	
   973                           ; 2 bytes @ 0x3
   974                           
   975                           
   976                           ; 2 bytes @ 0x3
   977  0073                     	ds	1
   978  0074                     eeprom_read@addr:	
   979  0074                     eeprom_write@addr:	
   980                           ; 1 bytes @ 0x4
   981                           
   982                           
   983                           ; 1 bytes @ 0x4
   984  0074                     	ds	1
   985  0075                     ??___max7219_write:	
   986  0075                     ??_max7219_points:	
   987                           ; 1 bytes @ 0x5
   988                           
   989  0075                     ??___awdiv:	
   990                           ; 1 bytes @ 0x5
   991                           
   992  0075                     ??___awmod:	
   993                           ; 1 bytes @ 0x5
   994                           
   995  0075                     ??___lwmod:	
   996                           ; 1 bytes @ 0x5
   997                           
   998                           
   999                           ; 1 bytes @ 0x5
  1000  0075                     	ds	1
  1001  0076                     ___awdiv@counter:	
  1002  0076                     ___awmod@counter:	
  1003                           ; 1 bytes @ 0x6
  1004                           
  1005  0076                     ___lwmod@counter:	
  1006                           ; 1 bytes @ 0x6
  1007                           
  1008  0076                     max7219_points@i:	
  1009                           ; 1 bytes @ 0x6
  1010                           
  1011                           
  1012                           ; 2 bytes @ 0x6
  1013  0076                     	ds	1
  1014  0077                     ?___lwdiv:	
  1015  0077                     ___awdiv@sign:	
  1016                           ; 2 bytes @ 0x7
  1017                           
  1018  0077                     ___awmod@sign:	
  1019                           ; 1 bytes @ 0x7
  1020                           
  1021  0077                     ___lwdiv@divisor:	
  1022                           ; 1 bytes @ 0x7
  1023                           
  1024                           
  1025                           ; 2 bytes @ 0x7
  1026  0077                     	ds	1
  1027  0078                     ___awdiv@quotient:	
  1028                           
  1029                           ; 2 bytes @ 0x8
  1030  0078                     	ds	1
  1031  0079                     ___max7219_write@dataSend:	
  1032  0079                     ___lwdiv@dividend:	
  1033                           ; 2 bytes @ 0x9
  1034                           
  1035                           
  1036                           ; 2 bytes @ 0x9
  1037  0079                     	ds	2
  1038  007B                     ??___lwdiv:	
  1039  007B                     ___max7219_write@i:	
  1040                           ; 1 bytes @ 0xB
  1041                           
  1042                           
  1043                           ; 2 bytes @ 0xB
  1044  007B                     	ds	2
  1045  007D                     ??_proceso_subir_bajar_tiempo:	
  1046  007D                     ??_proceso_run:	
  1047                           ; 1 bytes @ 0xD
  1048                           
  1049  007D                     ??_max7219_config:	
  1050                           ; 1 bytes @ 0xD
  1051                           
  1052  007D                     ??_max7219_brillo:	
  1053                           ; 1 bytes @ 0xD
  1054                           
  1055  007D                     ??_main:	
  1056                           ; 1 bytes @ 0xD
  1057                           
  1058                           
  1059                           	psect	cstackBANK0
  1060  0056                     __pcstackBANK0:	
  1061                           ; 1 bytes @ 0xD
  1062                           
  1063  0056                     ?_max7219_brillo:	
  1064  0056                     max7219_brillo@data:	
  1065                           ; 1 bytes @ 0x0
  1066                           
  1067  0056                     ___lwdiv@quotient:	
  1068                           ; 2 bytes @ 0x0
  1069                           
  1070                           
  1071                           ; 2 bytes @ 0x0
  1072  0056                     	ds	2
  1073  0058                     ___lwdiv@counter:	
  1074                           
  1075                           ; 1 bytes @ 0x2
  1076  0058                     	ds	1
  1077  0059                     ?_max7219_writeChar:	
  1078  0059                     max7219_writeChar@pos:	
  1079                           ; 1 bytes @ 0x3
  1080                           
  1081                           
  1082                           ; 2 bytes @ 0x3
  1083  0059                     	ds	2
  1084  005B                     max7219_writeChar@data:	
  1085                           
  1086                           ; 2 bytes @ 0x5
  1087  005B                     	ds	2
  1088  005D                     ??_max7219_writeChar:	
  1089                           
  1090                           ; 1 bytes @ 0x7
  1091  005D                     	ds	2
  1092  005F                     ??_update_eeprom:	
  1093  005F                     ??_display_init:	
  1094                           ; 1 bytes @ 0x9
  1095                           
  1096  005F                     ??_proceso_detenido:	
  1097                           ; 1 bytes @ 0x9
  1098                           
  1099                           
  1100                           ; 1 bytes @ 0x9
  1101  005F                     	ds	1
  1102  0060                     display_init@i:	
  1103                           
  1104                           ; 2 bytes @ 0xA
  1105  0060                     	ds	1
  1106  0061                     _update_eeprom$1107:	
  1107                           
  1108                           ; 2 bytes @ 0xB
  1109  0061                     	ds	1
  1110  0062                     display_init@j:	
  1111                           
  1112                           ; 2 bytes @ 0xC
  1113  0062                     	ds	1
  1114  0063                     update_eeprom@var1:	
  1115                           
  1116                           ; 2 bytes @ 0xD
  1117  0063                     	ds	2
  1118  0065                     update_eeprom@var2:	
  1119                           
  1120                           ; 2 bytes @ 0xF
  1121  0065                     	ds	2
  1122  0067                     _update_eeprom$1106:	
  1123                           
  1124                           ; 2 bytes @ 0x11
  1125  0067                     	ds	2
  1126                           
  1127                           	psect	maintext
  1128  0E24                     __pmaintext:	
  1129 ;;
  1130 ;;Main: autosize = 0, tempsize = 0, incstack = 0, save=0
  1131 ;;
  1132 ;; *************** function _main *****************
  1133 ;; Defined at:
  1134 ;;		line 36 in file "main.c"
  1135 ;; Parameters:    Size  Location     Type
  1136 ;;		None
  1137 ;; Auto vars:     Size  Location     Type
  1138 ;;		None
  1139 ;; Return value:  Size  Location     Type
  1140 ;;                  1    wreg      void 
  1141 ;; Registers used:
  1142 ;;		wreg, fsr1l, fsr1h, status,2, status,0, pclath, cstack
  1143 ;; Tracked objects:
  1144 ;;		On entry : B1F/0
  1145 ;;		On exit  : 0/0
  1146 ;;		Unchanged: 0/0
  1147 ;; Data sizes:     COMMON   BANK0   BANK1   BANK2
  1148 ;;      Params:         0       0       0       0
  1149 ;;      Locals:         0       0       0       0
  1150 ;;      Temps:          0       0       0       0
  1151 ;;      Totals:         0       0       0       0
  1152 ;;Total ram usage:        0 bytes
  1153 ;; Hardware stack levels required when called:    4
  1154 ;; This function calls:
  1155 ;;		_display_init
  1156 ;;		_input_config
  1157 ;;		_max7219_brillo
  1158 ;;		_max7219_config
  1159 ;;		_oscillator_config
  1160 ;;		_output_config
  1161 ;;		_proceso_detenido
  1162 ;;		_proceso_run
  1163 ;;		_proceso_subir_bajar_tiempo
  1164 ;;		_timer_0_config
  1165 ;;		_update_eeprom
  1166 ;; This function is called by:
  1167 ;;		Startup code after reset
  1168 ;; This function uses a non-reentrant model
  1169 ;;
  1170                           
  1171                           
  1172                           ;psect for function _main
  1173  0E24                     _main:	
  1174  0E24                     l2182:	
  1175                           ;incstack = 0
  1176                           ; Regs used in _main: [wreg+fsr1l+fsr1h+status,2+status,0+pclath+cstack]
  1177                           
  1178                           
  1179                           ;main.c: 38:     oscillator_config();
  1180  0E24  318D  2542  318E   	fcall	_oscillator_config
  1181  0E27                     l2184:	
  1182                           
  1183                           ;main.c: 39:     input_config();
  1184  0E27  318D  2516  318E   	fcall	_input_config
  1185  0E2A                     l2186:	
  1186                           
  1187                           ;main.c: 40:     output_config();
  1188  0E2A  318D  253B  318E   	fcall	_output_config
  1189                           
  1190                           ;main.c: 41:     timer_0_config();
  1191  0E2D  318D  254B  318E   	fcall	_timer_0_config
  1192                           
  1193                           ;main.c: 42:     max7219_config();
  1194  0E30  318F  2708  318E   	fcall	_max7219_config
  1195                           
  1196                           ;main.c: 43:     max7219_brillo(8);
  1197  0E33  3008               	movlw	8
  1198  0E34  0020               	movlb	0	; select bank0
  1199  0E35  00D6               	movwf	max7219_brillo@data
  1200  0E36  3000               	movlw	0
  1201  0E37  00D7               	movwf	max7219_brillo@data+1
  1202  0E38  318D  256D  318E   	fcall	_max7219_brillo
  1203  0E3B                     l2188:	
  1204                           
  1205                           ;main.c: 44:     update_eeprom();
  1206  0E3B  3180  2052  318E   	fcall	_update_eeprom
  1207  0E3E                     l2190:	
  1208                           
  1209                           ;main.c: 45:     display_init();
  1210  0E3E  3184  243B  318E   	fcall	_display_init
  1211  0E41                     l2192:	
  1212                           
  1213                           ;main.c: 49:         proceso_subir_bajar_tiempo();
  1214  0E41  3186  2692  318E   	fcall	_proceso_subir_bajar_tiempo
  1215  0E44                     l2194:	
  1216                           
  1217                           ;main.c: 51:         if (proceso == 1) {
  1218  0E44  0020               	movlb	0	; select bank0
  1219  0E45  032C               	decf	_proceso,w
  1220  0E46  042D               	iorwf	_proceso+1,w
  1221  0E47  1D03               	btfss	3,2
  1222  0E48  2E4A               	goto	u1781
  1223  0E49  2E4B               	goto	u1780
  1224  0E4A                     u1781:	
  1225  0E4A  2E4F               	goto	l2198
  1226  0E4B                     u1780:	
  1227  0E4B                     l2196:	
  1228                           
  1229                           ;main.c: 52:             proceso_run();
  1230  0E4B  3182  2288  318E   	fcall	_proceso_run
  1231                           
  1232                           ;main.c: 53:         } else {
  1233  0E4E  2E41               	goto	l2192
  1234  0E4F                     l2198:	
  1235                           
  1236                           ;main.c: 54:             proceso_detenido();
  1237  0E4F  3185  259F  318E   	fcall	_proceso_detenido
  1238  0E52  2E41               	goto	l2192
  1239  0E53  3180  2838         	ljmp	start
  1240  0E55                     __end_of_main:	
  1241                           
  1242                           	psect	text1
  1243  0052                     __ptext1:	
  1244 ;; *************** function _update_eeprom *****************
  1245 ;; Defined at:
  1246 ;;		line 115 in file "main.c"
  1247 ;; Parameters:    Size  Location     Type
  1248 ;;		None
  1249 ;; Auto vars:     Size  Location     Type
  1250 ;;  var2            2   15[BANK0 ] int 
  1251 ;;  var1            2   13[BANK0 ] int 
  1252 ;; Return value:  Size  Location     Type
  1253 ;;                  1    wreg      void 
  1254 ;; Registers used:
  1255 ;;		wreg, fsr1l, fsr1h, status,2, status,0, pclath, cstack
  1256 ;; Tracked objects:
  1257 ;;		On entry : 0/0
  1258 ;;		On exit  : 0/0
  1259 ;;		Unchanged: 0/0
  1260 ;; Data sizes:     COMMON   BANK0   BANK1   BANK2
  1261 ;;      Params:         0       0       0       0
  1262 ;;      Locals:         0       8       0       0
  1263 ;;      Temps:          0       2       0       0
  1264 ;;      Totals:         0      10       0       0
  1265 ;;Total ram usage:       10 bytes
  1266 ;; Hardware stack levels used:    1
  1267 ;; Hardware stack levels required when called:    3
  1268 ;; This function calls:
  1269 ;;		___lwdiv
  1270 ;;		___lwmod
  1271 ;;		_eeprom_read
  1272 ;;		_eeprom_write
  1273 ;;		_max7219_writeChar
  1274 ;; This function is called by:
  1275 ;;		_main
  1276 ;; This function uses a non-reentrant model
  1277 ;;
  1278                           
  1279                           
  1280                           ;psect for function _update_eeprom
  1281  0052                     _update_eeprom:	
  1282  0052                     l1924:	
  1283                           ;incstack = 0
  1284                           ; Regs used in _update_eeprom: [wreg+fsr1l+fsr1h+status,2+status,0+pclath+cstack]
  1285                           
  1286  0052  0020               	movlb	0	; select bank0
  1287  0053  01E5               	clrf	update_eeprom@var2
  1288  0054  01E6               	clrf	update_eeprom@var2+1
  1289  0055                     l1926:	
  1290                           
  1291                           ;main.c: 118:     var1 = eeprom_read(0);
  1292  0055  3000               	movlw	0
  1293  0056  318D  2558  3180   	fcall	_eeprom_read
  1294  0059  0020               	movlb	0	; select bank0
  1295  005A  00DF               	movwf	??_update_eeprom
  1296  005B  01E0               	clrf	??_update_eeprom+1
  1297  005C  085F               	movf	??_update_eeprom,w
  1298  005D  00E3               	movwf	update_eeprom@var1
  1299  005E  0860               	movf	??_update_eeprom+1,w
  1300  005F  00E4               	movwf	update_eeprom@var1+1
  1301  0060                     l1928:	
  1302                           
  1303                           ;main.c: 119:     minutos_set = var1;
  1304  0060  0864               	movf	update_eeprom@var1+1,w
  1305  0061  00B9               	movwf	_minutos_set+1
  1306  0062  0863               	movf	update_eeprom@var1,w
  1307  0063  00B8               	movwf	_minutos_set
  1308  0064                     l1930:	
  1309                           
  1310                           ;main.c: 120:     var2 = eeprom_read(1);
  1311  0064  3001               	movlw	1
  1312  0065  318D  2558  3180   	fcall	_eeprom_read
  1313  0068  0020               	movlb	0	; select bank0
  1314  0069  00DF               	movwf	??_update_eeprom
  1315  006A  01E0               	clrf	??_update_eeprom+1
  1316  006B  085F               	movf	??_update_eeprom,w
  1317  006C  00E5               	movwf	update_eeprom@var2
  1318  006D  0860               	movf	??_update_eeprom+1,w
  1319  006E  00E6               	movwf	update_eeprom@var2+1
  1320  006F                     l1932:	
  1321                           
  1322                           ;main.c: 121:     segundos_set = var2;
  1323  006F  0866               	movf	update_eeprom@var2+1,w
  1324  0070  00B7               	movwf	_segundos_set+1
  1325  0071  0865               	movf	update_eeprom@var2,w
  1326  0072  00B6               	movwf	_segundos_set
  1327  0073                     l1934:	
  1328                           
  1329                           ;main.c: 122:     if (minutos_set == 0xFF || segundos_set == 0xFF) {
  1330  0073  0A38               	incf	_minutos_set,w
  1331  0074  0439               	iorwf	_minutos_set+1,w
  1332  0075  1903               	btfsc	3,2
  1333  0076  2878               	goto	u1531
  1334  0077  2879               	goto	u1530
  1335  0078                     u1531:	
  1336  0078  287F               	goto	l1938
  1337  0079                     u1530:	
  1338  0079                     l1936:	
  1339  0079  0A36               	incf	_segundos_set,w
  1340  007A  0437               	iorwf	_segundos_set+1,w
  1341  007B  1D03               	btfss	3,2
  1342  007C  287E               	goto	u1541
  1343  007D  287F               	goto	u1540
  1344  007E                     u1541:	
  1345  007E  2883               	goto	l1940
  1346  007F                     u1540:	
  1347  007F                     l1938:	
  1348                           
  1349                           ;main.c: 123:         minutos_set = 0;
  1350  007F  01B8               	clrf	_minutos_set
  1351  0080  01B9               	clrf	_minutos_set+1
  1352                           
  1353                           ;main.c: 124:         segundos_set = 0;
  1354  0081  01B6               	clrf	_segundos_set
  1355  0082  01B7               	clrf	_segundos_set+1
  1356  0083                     l1940:	
  1357                           
  1358                           ;main.c: 127:     var1 = eeprom_read(2);
  1359  0083  3002               	movlw	2
  1360  0084  318D  2558  3180   	fcall	_eeprom_read
  1361  0087  0020               	movlb	0	; select bank0
  1362  0088  00DF               	movwf	??_update_eeprom
  1363  0089  01E0               	clrf	??_update_eeprom+1
  1364  008A  085F               	movf	??_update_eeprom,w
  1365  008B  00E3               	movwf	update_eeprom@var1
  1366  008C  0860               	movf	??_update_eeprom+1,w
  1367  008D  00E4               	movwf	update_eeprom@var1+1
  1368  008E                     l1942:	
  1369                           
  1370                           ;main.c: 128:     var2 = eeprom_read(3);
  1371  008E  3003               	movlw	3
  1372  008F  318D  2558  3180   	fcall	_eeprom_read
  1373  0092  0020               	movlb	0	; select bank0
  1374  0093  00DF               	movwf	??_update_eeprom
  1375  0094  01E0               	clrf	??_update_eeprom+1
  1376  0095  085F               	movf	??_update_eeprom,w
  1377  0096  00E5               	movwf	update_eeprom@var2
  1378  0097  0860               	movf	??_update_eeprom+1,w
  1379  0098  00E6               	movwf	update_eeprom@var2+1
  1380  0099                     l1944:	
  1381                           
  1382                           ;main.c: 129:     encendido = var1;
  1383  0099  0864               	movf	update_eeprom@var1+1,w
  1384  009A  00A7               	movwf	_encendido+1
  1385  009B  0863               	movf	update_eeprom@var1,w
  1386  009C  00A6               	movwf	_encendido
  1387  009D                     l1946:	
  1388                           
  1389                           ;main.c: 130:     encendido <<= 8;
  1390  009D  3008               	movlw	8
  1391  009E                     u1555:	
  1392  009E  35A6               	lslf	_encendido,f
  1393  009F  0DA7               	rlf	_encendido+1,f
  1394  00A0  0B89               	decfsz	9,f
  1395  00A1  289E               	goto	u1555
  1396  00A2                     l1948:	
  1397                           
  1398                           ;main.c: 131:     encendido |= var2;
  1399  00A2  0865               	movf	update_eeprom@var2,w
  1400  00A3  04A6               	iorwf	_encendido,f
  1401  00A4  0866               	movf	update_eeprom@var2+1,w
  1402  00A5  04A7               	iorwf	_encendido+1,f
  1403  00A6                     l1950:	
  1404                           
  1405                           ;main.c: 132:     if (encendido == 0xFFFF) {
  1406  00A6  0A26               	incf	_encendido,w
  1407  00A7  1D03               	skipz
  1408  00A8  28AD               	goto	u1561
  1409  00A9  0A27               	incf	_encendido+1,w
  1410  00AA  1D03               	btfss	3,2
  1411  00AB  28AD               	goto	u1561
  1412  00AC  28AE               	goto	u1560
  1413  00AD                     u1561:	
  1414  00AD  28C6               	goto	l1960
  1415  00AE                     u1560:	
  1416  00AE                     l1952:	
  1417                           
  1418                           ;main.c: 133:         encendido = 0;
  1419  00AE  01A6               	clrf	_encendido
  1420  00AF  01A7               	clrf	_encendido+1
  1421  00B0                     l1954:	
  1422                           
  1423                           ;main.c: 134:         encendido++;
  1424  00B0  3001               	movlw	1
  1425  00B1  07A6               	addwf	_encendido,f
  1426  00B2  3000               	movlw	0
  1427  00B3  3DA7               	addwfc	_encendido+1,f
  1428  00B4                     l1956:	
  1429                           
  1430                           ;main.c: 135:         eeprom_write(2, encendido >> 8);
  1431  00B4  0827               	movf	_encendido+1,w
  1432  00B5  00DF               	movwf	??_update_eeprom
  1433  00B6  085F               	movf	??_update_eeprom,w
  1434  00B7  00F1               	movwf	eeprom_write@value
  1435  00B8  3002               	movlw	2
  1436  00B9  318D  25FA  3180   	fcall	_eeprom_write
  1437  00BC                     l1958:	
  1438                           
  1439                           ;main.c: 136:         eeprom_write(3, encendido);
  1440  00BC  0020               	movlb	0	; select bank0
  1441  00BD  0826               	movf	_encendido,w
  1442  00BE  00DF               	movwf	??_update_eeprom
  1443  00BF  085F               	movf	??_update_eeprom,w
  1444  00C0  00F1               	movwf	eeprom_write@value
  1445  00C1  3003               	movlw	3
  1446  00C2  318D  25FA  3180   	fcall	_eeprom_write
  1447                           
  1448                           ;main.c: 137:     } else {
  1449  00C5  28DB               	goto	l1966
  1450  00C6                     l1960:	
  1451                           
  1452                           ;main.c: 138:         encendido++;
  1453  00C6  3001               	movlw	1
  1454  00C7  07A6               	addwf	_encendido,f
  1455  00C8  3000               	movlw	0
  1456  00C9  3DA7               	addwfc	_encendido+1,f
  1457  00CA                     l1962:	
  1458                           
  1459                           ;main.c: 139:         eeprom_write(2, encendido >> 8);
  1460  00CA  0827               	movf	_encendido+1,w
  1461  00CB  00DF               	movwf	??_update_eeprom
  1462  00CC  085F               	movf	??_update_eeprom,w
  1463  00CD  00F1               	movwf	eeprom_write@value
  1464  00CE  3002               	movlw	2
  1465  00CF  318D  25FA  3180   	fcall	_eeprom_write
  1466  00D2                     l1964:	
  1467                           
  1468                           ;main.c: 140:         eeprom_write(3, encendido);
  1469  00D2  0020               	movlb	0	; select bank0
  1470  00D3  0826               	movf	_encendido,w
  1471  00D4  00DF               	movwf	??_update_eeprom
  1472  00D5  085F               	movf	??_update_eeprom,w
  1473  00D6  00F1               	movwf	eeprom_write@value
  1474  00D7  3003               	movlw	3
  1475  00D8  318D  25FA  3180   	fcall	_eeprom_write
  1476  00DB                     l1966:	
  1477                           
  1478                           ;main.c: 143:     var1 = eeprom_read(4);
  1479  00DB  3004               	movlw	4
  1480  00DC  318D  2558  3180   	fcall	_eeprom_read
  1481  00DF  0020               	movlb	0	; select bank0
  1482  00E0  00DF               	movwf	??_update_eeprom
  1483  00E1  01E0               	clrf	??_update_eeprom+1
  1484  00E2  085F               	movf	??_update_eeprom,w
  1485  00E3  00E3               	movwf	update_eeprom@var1
  1486  00E4  0860               	movf	??_update_eeprom+1,w
  1487  00E5  00E4               	movwf	update_eeprom@var1+1
  1488  00E6                     l1968:	
  1489                           
  1490                           ;main.c: 144:     var2 = eeprom_read(5);
  1491  00E6  3005               	movlw	5
  1492  00E7  318D  2558  3180   	fcall	_eeprom_read
  1493  00EA  0020               	movlb	0	; select bank0
  1494  00EB  00DF               	movwf	??_update_eeprom
  1495  00EC  01E0               	clrf	??_update_eeprom+1
  1496  00ED  085F               	movf	??_update_eeprom,w
  1497  00EE  00E5               	movwf	update_eeprom@var2
  1498  00EF  0860               	movf	??_update_eeprom+1,w
  1499  00F0  00E6               	movwf	update_eeprom@var2+1
  1500                           
  1501                           ;main.c: 145:     veces_uso = var1;
  1502  00F1  0864               	movf	update_eeprom@var1+1,w
  1503  00F2  00A9               	movwf	_veces_uso+1
  1504  00F3  0863               	movf	update_eeprom@var1,w
  1505  00F4  00A8               	movwf	_veces_uso
  1506                           
  1507                           ;main.c: 146:     veces_uso <<= 8;
  1508  00F5  3008               	movlw	8
  1509  00F6                     u1575:	
  1510  00F6  35A8               	lslf	_veces_uso,f
  1511  00F7  0DA9               	rlf	_veces_uso+1,f
  1512  00F8  0B89               	decfsz	9,f
  1513  00F9  28F6               	goto	u1575
  1514                           
  1515                           ;main.c: 147:     veces_uso |= var2;
  1516  00FA  0865               	movf	update_eeprom@var2,w
  1517  00FB  04A8               	iorwf	_veces_uso,f
  1518  00FC  0866               	movf	update_eeprom@var2+1,w
  1519  00FD  04A9               	iorwf	_veces_uso+1,f
  1520  00FE                     l1970:	
  1521                           
  1522                           ;main.c: 148:     if (veces_uso == 0xFFFF) {
  1523  00FE  0A28               	incf	_veces_uso,w
  1524  00FF  1D03               	skipz
  1525  0100  2905               	goto	u1581
  1526  0101  0A29               	incf	_veces_uso+1,w
  1527  0102  1D03               	btfss	3,2
  1528  0103  2905               	goto	u1581
  1529  0104  2906               	goto	u1580
  1530  0105                     u1581:	
  1531  0105  2919               	goto	l1978
  1532  0106                     u1580:	
  1533  0106                     l1972:	
  1534                           
  1535                           ;main.c: 149:         veces_uso = 0;
  1536  0106  01A8               	clrf	_veces_uso
  1537  0107  01A9               	clrf	_veces_uso+1
  1538  0108                     l1974:	
  1539                           
  1540                           ;main.c: 150:         eeprom_write(4, veces_uso >> 8);
  1541  0108  0829               	movf	_veces_uso+1,w
  1542  0109  00DF               	movwf	??_update_eeprom
  1543  010A  085F               	movf	??_update_eeprom,w
  1544  010B  00F1               	movwf	eeprom_write@value
  1545  010C  3004               	movlw	4
  1546  010D  318D  25FA  3180   	fcall	_eeprom_write
  1547  0110                     l1976:	
  1548                           
  1549                           ;main.c: 151:         eeprom_write(5, veces_uso);
  1550  0110  0020               	movlb	0	; select bank0
  1551  0111  0828               	movf	_veces_uso,w
  1552  0112  00DF               	movwf	??_update_eeprom
  1553  0113  085F               	movf	??_update_eeprom,w
  1554  0114  00F1               	movwf	eeprom_write@value
  1555  0115  3005               	movlw	5
  1556  0116  318D  25FA  3180   	fcall	_eeprom_write
  1557  0119                     l1978:	
  1558                           
  1559                           ;main.c: 154:     max7219_writeChar(1, encendido / 1000);
  1560  0119  3001               	movlw	1
  1561  011A  0020               	movlb	0	; select bank0
  1562  011B  00D9               	movwf	max7219_writeChar@pos
  1563  011C  3000               	movlw	0
  1564  011D  00DA               	movwf	max7219_writeChar@pos+1
  1565  011E  30E8               	movlw	232
  1566  011F  00F7               	movwf	___lwdiv@divisor
  1567  0120  3003               	movlw	3
  1568  0121  00F8               	movwf	___lwdiv@divisor+1
  1569  0122  0827               	movf	_encendido+1,w
  1570  0123  00FA               	movwf	___lwdiv@dividend+1
  1571  0124  0826               	movf	_encendido,w
  1572  0125  00F9               	movwf	___lwdiv@dividend
  1573  0126  318E  2689  3180   	fcall	___lwdiv
  1574  0129  0878               	movf	?___lwdiv+1,w
  1575  012A  0020               	movlb	0	; select bank0
  1576  012B  00DC               	movwf	max7219_writeChar@data+1
  1577  012C  0877               	movf	?___lwdiv,w
  1578  012D  00DB               	movwf	max7219_writeChar@data
  1579  012E  318F  27A6  3180   	fcall	_max7219_writeChar
  1580  0131                     l1980:	
  1581                           
  1582                           ;main.c: 155:     max7219_writeChar(5, (encendido % 1000) / 100);
  1583  0131  3005               	movlw	5
  1584  0132  0020               	movlb	0	; select bank0
  1585  0133  00D9               	movwf	max7219_writeChar@pos
  1586  0134  3000               	movlw	0
  1587  0135  00DA               	movwf	max7219_writeChar@pos+1
  1588  0136  3064               	movlw	100
  1589  0137  00F7               	movwf	___lwdiv@divisor
  1590  0138  3000               	movlw	0
  1591  0139  00F8               	movwf	___lwdiv@divisor+1
  1592  013A  0827               	movf	_encendido+1,w
  1593  013B  00F4               	movwf	___lwmod@dividend+1
  1594  013C  0826               	movf	_encendido,w
  1595  013D  00F3               	movwf	___lwmod@dividend
  1596  013E  30E8               	movlw	232
  1597  013F  00F1               	movwf	___lwmod@divisor
  1598  0140  3003               	movlw	3
  1599  0141  00F2               	movwf	___lwmod@divisor+1
  1600  0142  318E  2655  3180   	fcall	___lwmod
  1601  0145  0872               	movf	?___lwmod+1,w
  1602  0146  00FA               	movwf	___lwdiv@dividend+1
  1603  0147  0871               	movf	?___lwmod,w
  1604  0148  00F9               	movwf	___lwdiv@dividend
  1605  0149  318E  2689  3180   	fcall	___lwdiv
  1606  014C  0878               	movf	?___lwdiv+1,w
  1607  014D  0020               	movlb	0	; select bank0
  1608  014E  00DC               	movwf	max7219_writeChar@data+1
  1609  014F  0877               	movf	?___lwdiv,w
  1610  0150  00DB               	movwf	max7219_writeChar@data
  1611  0151  318F  27A6  3180   	fcall	_max7219_writeChar
  1612  0154                     l1982:	
  1613                           
  1614                           ;main.c: 156:     max7219_writeChar(7, ((encendido % 1000) % 100) / 10);
  1615  0154  0020               	movlb	0	; select bank0
  1616  0155  0827               	movf	_encendido+1,w
  1617  0156  00F4               	movwf	___lwmod@dividend+1
  1618  0157  0826               	movf	_encendido,w
  1619  0158  00F3               	movwf	___lwmod@dividend
  1620  0159  30E8               	movlw	232
  1621  015A  00F1               	movwf	___lwmod@divisor
  1622  015B  3003               	movlw	3
  1623  015C  00F2               	movwf	___lwmod@divisor+1
  1624  015D  318E  2655  3180   	fcall	___lwmod
  1625  0160  0872               	movf	?___lwmod+1,w
  1626  0161  0020               	movlb	0	; select bank0
  1627  0162  00E8               	movwf	_update_eeprom$1106+1
  1628  0163  0871               	movf	?___lwmod,w
  1629  0164  00E7               	movwf	_update_eeprom$1106
  1630  0165                     l1984:	
  1631                           
  1632                           ;main.c: 156:     max7219_writeChar(7, ((encendido % 1000) % 100) / 10);
  1633  0165  3007               	movlw	7
  1634  0166  00D9               	movwf	max7219_writeChar@pos
  1635  0167  3000               	movlw	0
  1636  0168  00DA               	movwf	max7219_writeChar@pos+1
  1637  0169  300A               	movlw	10
  1638  016A  00F7               	movwf	___lwdiv@divisor
  1639  016B  3000               	movlw	0
  1640  016C  00F8               	movwf	___lwdiv@divisor+1
  1641  016D  0868               	movf	_update_eeprom$1106+1,w
  1642  016E  00F4               	movwf	___lwmod@dividend+1
  1643  016F  0867               	movf	_update_eeprom$1106,w
  1644  0170  00F3               	movwf	___lwmod@dividend
  1645  0171  3064               	movlw	100
  1646  0172  00F1               	movwf	___lwmod@divisor
  1647  0173  3000               	movlw	0
  1648  0174  00F2               	movwf	___lwmod@divisor+1
  1649  0175  318E  2655  3180   	fcall	___lwmod
  1650  0178  0872               	movf	?___lwmod+1,w
  1651  0179  00FA               	movwf	___lwdiv@dividend+1
  1652  017A  0871               	movf	?___lwmod,w
  1653  017B  00F9               	movwf	___lwdiv@dividend
  1654  017C  318E  2689  3180   	fcall	___lwdiv
  1655  017F  0878               	movf	?___lwdiv+1,w
  1656  0180  0020               	movlb	0	; select bank0
  1657  0181  00DC               	movwf	max7219_writeChar@data+1
  1658  0182  0877               	movf	?___lwdiv,w
  1659  0183  00DB               	movwf	max7219_writeChar@data
  1660  0184  318F  27A6  3180   	fcall	_max7219_writeChar
  1661  0187                     l1986:	
  1662                           
  1663                           ;main.c: 157:     max7219_writeChar(3, ((encendido % 1000) % 100) % 10);
  1664  0187  0020               	movlb	0	; select bank0
  1665  0188  0827               	movf	_encendido+1,w
  1666  0189  00F4               	movwf	___lwmod@dividend+1
  1667  018A  0826               	movf	_encendido,w
  1668  018B  00F3               	movwf	___lwmod@dividend
  1669  018C  30E8               	movlw	232
  1670  018D  00F1               	movwf	___lwmod@divisor
  1671  018E  3003               	movlw	3
  1672  018F  00F2               	movwf	___lwmod@divisor+1
  1673  0190  318E  2655  3180   	fcall	___lwmod
  1674  0193  0872               	movf	?___lwmod+1,w
  1675  0194  0020               	movlb	0	; select bank0
  1676  0195  00E8               	movwf	_update_eeprom$1106+1
  1677  0196  0871               	movf	?___lwmod,w
  1678  0197  00E7               	movwf	_update_eeprom$1106
  1679  0198                     l1988:	
  1680                           
  1681                           ;main.c: 157:     max7219_writeChar(3, ((encendido % 1000) % 100) % 10);
  1682  0198  0868               	movf	_update_eeprom$1106+1,w
  1683  0199  00F4               	movwf	___lwmod@dividend+1
  1684  019A  0867               	movf	_update_eeprom$1106,w
  1685  019B  00F3               	movwf	___lwmod@dividend
  1686  019C  3064               	movlw	100
  1687  019D  00F1               	movwf	___lwmod@divisor
  1688  019E  3000               	movlw	0
  1689  019F  00F2               	movwf	___lwmod@divisor+1
  1690  01A0  318E  2655  3180   	fcall	___lwmod
  1691  01A3  0872               	movf	?___lwmod+1,w
  1692  01A4  0020               	movlb	0	; select bank0
  1693  01A5  00E2               	movwf	_update_eeprom$1107+1
  1694  01A6  0871               	movf	?___lwmod,w
  1695  01A7  00E1               	movwf	_update_eeprom$1107
  1696  01A8                     l1990:	
  1697                           
  1698                           ;main.c: 157:     max7219_writeChar(3, ((encendido % 1000) % 100) % 10);
  1699  01A8  3003               	movlw	3
  1700  01A9  00D9               	movwf	max7219_writeChar@pos
  1701  01AA  3000               	movlw	0
  1702  01AB  00DA               	movwf	max7219_writeChar@pos+1
  1703  01AC  300A               	movlw	10
  1704  01AD  00F1               	movwf	___lwmod@divisor
  1705  01AE  3000               	movlw	0
  1706  01AF  00F2               	movwf	___lwmod@divisor+1
  1707  01B0  0862               	movf	_update_eeprom$1107+1,w
  1708  01B1  00F4               	movwf	___lwmod@dividend+1
  1709  01B2  0861               	movf	_update_eeprom$1107,w
  1710  01B3  00F3               	movwf	___lwmod@dividend
  1711  01B4  318E  2655  3180   	fcall	___lwmod
  1712  01B7  0872               	movf	?___lwmod+1,w
  1713  01B8  0020               	movlb	0	; select bank0
  1714  01B9  00DC               	movwf	max7219_writeChar@data+1
  1715  01BA  0871               	movf	?___lwmod,w
  1716  01BB  00DB               	movwf	max7219_writeChar@data
  1717  01BC  318F  27A6  3180   	fcall	_max7219_writeChar
  1718  01BF                     l1992:	
  1719                           
  1720                           ;main.c: 159:     max7219_writeChar(8, veces_uso / 1000);
  1721  01BF  3008               	movlw	8
  1722  01C0  0020               	movlb	0	; select bank0
  1723  01C1  00D9               	movwf	max7219_writeChar@pos
  1724  01C2  3000               	movlw	0
  1725  01C3  00DA               	movwf	max7219_writeChar@pos+1
  1726  01C4  30E8               	movlw	232
  1727  01C5  00F7               	movwf	___lwdiv@divisor
  1728  01C6  3003               	movlw	3
  1729  01C7  00F8               	movwf	___lwdiv@divisor+1
  1730  01C8  0829               	movf	_veces_uso+1,w
  1731  01C9  00FA               	movwf	___lwdiv@dividend+1
  1732  01CA  0828               	movf	_veces_uso,w
  1733  01CB  00F9               	movwf	___lwdiv@dividend
  1734  01CC  318E  2689  3180   	fcall	___lwdiv
  1735  01CF  0878               	movf	?___lwdiv+1,w
  1736  01D0  0020               	movlb	0	; select bank0
  1737  01D1  00DC               	movwf	max7219_writeChar@data+1
  1738  01D2  0877               	movf	?___lwdiv,w
  1739  01D3  00DB               	movwf	max7219_writeChar@data
  1740  01D4  318F  27A6  3180   	fcall	_max7219_writeChar
  1741  01D7                     l1994:	
  1742                           
  1743                           ;main.c: 160:     max7219_writeChar(6, (veces_uso % 1000) / 100);
  1744  01D7  3006               	movlw	6
  1745  01D8  0020               	movlb	0	; select bank0
  1746  01D9  00D9               	movwf	max7219_writeChar@pos
  1747  01DA  3000               	movlw	0
  1748  01DB  00DA               	movwf	max7219_writeChar@pos+1
  1749  01DC  3064               	movlw	100
  1750  01DD  00F7               	movwf	___lwdiv@divisor
  1751  01DE  3000               	movlw	0
  1752  01DF  00F8               	movwf	___lwdiv@divisor+1
  1753  01E0  0829               	movf	_veces_uso+1,w
  1754  01E1  00F4               	movwf	___lwmod@dividend+1
  1755  01E2  0828               	movf	_veces_uso,w
  1756  01E3  00F3               	movwf	___lwmod@dividend
  1757  01E4  30E8               	movlw	232
  1758  01E5  00F1               	movwf	___lwmod@divisor
  1759  01E6  3003               	movlw	3
  1760  01E7  00F2               	movwf	___lwmod@divisor+1
  1761  01E8  318E  2655  3180   	fcall	___lwmod
  1762  01EB  0872               	movf	?___lwmod+1,w
  1763  01EC  00FA               	movwf	___lwdiv@dividend+1
  1764  01ED  0871               	movf	?___lwmod,w
  1765  01EE  00F9               	movwf	___lwdiv@dividend
  1766  01EF  318E  2689  3180   	fcall	___lwdiv
  1767  01F2  0878               	movf	?___lwdiv+1,w
  1768  01F3  0020               	movlb	0	; select bank0
  1769  01F4  00DC               	movwf	max7219_writeChar@data+1
  1770  01F5  0877               	movf	?___lwdiv,w
  1771  01F6  00DB               	movwf	max7219_writeChar@data
  1772  01F7  318F  27A6  3180   	fcall	_max7219_writeChar
  1773  01FA                     l1996:	
  1774                           
  1775                           ;main.c: 161:     max7219_writeChar(2, ((veces_uso % 1000) % 100) / 10);
  1776  01FA  0020               	movlb	0	; select bank0
  1777  01FB  0829               	movf	_veces_uso+1,w
  1778  01FC  00F4               	movwf	___lwmod@dividend+1
  1779  01FD  0828               	movf	_veces_uso,w
  1780  01FE  00F3               	movwf	___lwmod@dividend
  1781  01FF  30E8               	movlw	232
  1782  0200  00F1               	movwf	___lwmod@divisor
  1783  0201  3003               	movlw	3
  1784  0202  00F2               	movwf	___lwmod@divisor+1
  1785  0203  318E  2655  3180   	fcall	___lwmod
  1786  0206  0872               	movf	?___lwmod+1,w
  1787  0207  0020               	movlb	0	; select bank0
  1788  0208  00E8               	movwf	_update_eeprom$1106+1
  1789  0209  0871               	movf	?___lwmod,w
  1790  020A  00E7               	movwf	_update_eeprom$1106
  1791  020B                     l1998:	
  1792                           
  1793                           ;main.c: 161:     max7219_writeChar(2, ((veces_uso % 1000) % 100) / 10);
  1794  020B  3002               	movlw	2
  1795  020C  00D9               	movwf	max7219_writeChar@pos
  1796  020D  3000               	movlw	0
  1797  020E  00DA               	movwf	max7219_writeChar@pos+1
  1798  020F  300A               	movlw	10
  1799  0210  00F7               	movwf	___lwdiv@divisor
  1800  0211  3000               	movlw	0
  1801  0212  00F8               	movwf	___lwdiv@divisor+1
  1802  0213  0868               	movf	_update_eeprom$1106+1,w
  1803  0214  00F4               	movwf	___lwmod@dividend+1
  1804  0215  0867               	movf	_update_eeprom$1106,w
  1805  0216  00F3               	movwf	___lwmod@dividend
  1806  0217  3064               	movlw	100
  1807  0218  00F1               	movwf	___lwmod@divisor
  1808  0219  3000               	movlw	0
  1809  021A  00F2               	movwf	___lwmod@divisor+1
  1810  021B  318E  2655  3180   	fcall	___lwmod
  1811  021E  0872               	movf	?___lwmod+1,w
  1812  021F  00FA               	movwf	___lwdiv@dividend+1
  1813  0220  0871               	movf	?___lwmod,w
  1814  0221  00F9               	movwf	___lwdiv@dividend
  1815  0222  318E  2689  3180   	fcall	___lwdiv
  1816  0225  0878               	movf	?___lwdiv+1,w
  1817  0226  0020               	movlb	0	; select bank0
  1818  0227  00DC               	movwf	max7219_writeChar@data+1
  1819  0228  0877               	movf	?___lwdiv,w
  1820  0229  00DB               	movwf	max7219_writeChar@data
  1821  022A  318F  27A6  3180   	fcall	_max7219_writeChar
  1822  022D                     l2000:	
  1823                           
  1824                           ;main.c: 162:     max7219_writeChar(4, ((veces_uso % 1000) % 100) % 10);
  1825  022D  0020               	movlb	0	; select bank0
  1826  022E  0829               	movf	_veces_uso+1,w
  1827  022F  00F4               	movwf	___lwmod@dividend+1
  1828  0230  0828               	movf	_veces_uso,w
  1829  0231  00F3               	movwf	___lwmod@dividend
  1830  0232  30E8               	movlw	232
  1831  0233  00F1               	movwf	___lwmod@divisor
  1832  0234  3003               	movlw	3
  1833  0235  00F2               	movwf	___lwmod@divisor+1
  1834  0236  318E  2655  3180   	fcall	___lwmod
  1835  0239  0872               	movf	?___lwmod+1,w
  1836  023A  0020               	movlb	0	; select bank0
  1837  023B  00E8               	movwf	_update_eeprom$1106+1
  1838  023C  0871               	movf	?___lwmod,w
  1839  023D  00E7               	movwf	_update_eeprom$1106
  1840  023E                     l2002:	
  1841                           
  1842                           ;main.c: 162:     max7219_writeChar(4, ((veces_uso % 1000) % 100) % 10);
  1843  023E  0868               	movf	_update_eeprom$1106+1,w
  1844  023F  00F4               	movwf	___lwmod@dividend+1
  1845  0240  0867               	movf	_update_eeprom$1106,w
  1846  0241  00F3               	movwf	___lwmod@dividend
  1847  0242  3064               	movlw	100
  1848  0243  00F1               	movwf	___lwmod@divisor
  1849  0244  3000               	movlw	0
  1850  0245  00F2               	movwf	___lwmod@divisor+1
  1851  0246  318E  2655  3180   	fcall	___lwmod
  1852  0249  0872               	movf	?___lwmod+1,w
  1853  024A  0020               	movlb	0	; select bank0
  1854  024B  00E2               	movwf	_update_eeprom$1107+1
  1855  024C  0871               	movf	?___lwmod,w
  1856  024D  00E1               	movwf	_update_eeprom$1107
  1857  024E                     l2004:	
  1858                           
  1859                           ;main.c: 162:     max7219_writeChar(4, ((veces_uso % 1000) % 100) % 10);
  1860  024E  3004               	movlw	4
  1861  024F  00D9               	movwf	max7219_writeChar@pos
  1862  0250  3000               	movlw	0
  1863  0251  00DA               	movwf	max7219_writeChar@pos+1
  1864  0252  300A               	movlw	10
  1865  0253  00F1               	movwf	___lwmod@divisor
  1866  0254  3000               	movlw	0
  1867  0255  00F2               	movwf	___lwmod@divisor+1
  1868  0256  0862               	movf	_update_eeprom$1107+1,w
  1869  0257  00F4               	movwf	___lwmod@dividend+1
  1870  0258  0861               	movf	_update_eeprom$1107,w
  1871  0259  00F3               	movwf	___lwmod@dividend
  1872  025A  318E  2655  3180   	fcall	___lwmod
  1873  025D  0872               	movf	?___lwmod+1,w
  1874  025E  0020               	movlb	0	; select bank0
  1875  025F  00DC               	movwf	max7219_writeChar@data+1
  1876  0260  0871               	movf	?___lwmod,w
  1877  0261  00DB               	movwf	max7219_writeChar@data
  1878  0262  318F  27A6  3180   	fcall	_max7219_writeChar
  1879  0265                     l2006:	
  1880                           
  1881                           ;main.c: 164:     for (k = 0; k < 500000; k++);
  1882  0265  3000               	movlw	0
  1883  0266  0020               	movlb	0	; select bank0
  1884  0267  00A3               	movwf	_k+3
  1885  0268  3000               	movlw	0
  1886  0269  00A2               	movwf	_k+2
  1887  026A  3000               	movlw	0
  1888  026B  00A1               	movwf	_k+1
  1889  026C  3000               	movlw	0
  1890  026D  00A0               	movwf	_k
  1891  026E                     l2008:	
  1892  026E  1BA3               	btfsc	_k+3,7
  1893  026F  2A7C               	goto	u1591
  1894  0270  0823               	movf	_k+3,w
  1895  0271  1D03               	btfss	3,2
  1896  0272  2A7D               	goto	u1590
  1897  0273  3020               	movlw	32
  1898  0274  0220               	subwf	_k,w
  1899  0275  30A1               	movlw	161
  1900  0276  3B21               	subwfb	_k+1,w
  1901  0277  3007               	movlw	7
  1902  0278  3B22               	subwfb	_k+2,w
  1903  0279  1C03               	btfss	3,0
  1904  027A  2A7C               	goto	u1591
  1905  027B  2A7D               	goto	u1590
  1906  027C                     u1591:	
  1907  027C  2A7E               	goto	l2012
  1908  027D                     u1590:	
  1909  027D  2A87               	goto	l183
  1910  027E                     l2012:	
  1911  027E  3001               	movlw	1
  1912  027F  07A0               	addwf	_k,f
  1913  0280  3000               	movlw	0
  1914  0281  3DA1               	addwfc	_k+1,f
  1915  0282  3000               	movlw	0
  1916  0283  3DA2               	addwfc	_k+2,f
  1917  0284  3000               	movlw	0
  1918  0285  3DA3               	addwfc	_k+3,f
  1919  0286  2A6E               	goto	l2008
  1920  0287                     l183:	
  1921  0287  0008               	return
  1922  0288                     __end_of_update_eeprom:	
  1923                           
  1924                           	psect	text2
  1925  0D58                     __ptext2:	
  1926 ;; *************** function _eeprom_read *****************
  1927 ;; Defined at:
  1928 ;;		line 6 in file "C:\Program Files (x86)\Microchip\xc8\v2.10\pic\sources\c99\pic\__eeread.c"
  1929 ;; Parameters:    Size  Location     Type
  1930 ;;  addr            1    wreg     unsigned char 
  1931 ;; Auto vars:     Size  Location     Type
  1932 ;;  addr            1    4[COMMON] unsigned char 
  1933 ;; Return value:  Size  Location     Type
  1934 ;;                  1    wreg      unsigned char 
  1935 ;; Registers used:
  1936 ;;		wreg, status,2, status,0
  1937 ;; Tracked objects:
  1938 ;;		On entry : 0/0
  1939 ;;		On exit  : 0/0
  1940 ;;		Unchanged: 0/0
  1941 ;; Data sizes:     COMMON   BANK0   BANK1   BANK2
  1942 ;;      Params:         0       0       0       0
  1943 ;;      Locals:         1       0       0       0
  1944 ;;      Temps:          3       0       0       0
  1945 ;;      Totals:         4       0       0       0
  1946 ;;Total ram usage:        4 bytes
  1947 ;; Hardware stack levels used:    1
  1948 ;; Hardware stack levels required when called:    1
  1949 ;; This function calls:
  1950 ;;		Nothing
  1951 ;; This function is called by:
  1952 ;;		_update_eeprom
  1953 ;; This function uses a non-reentrant model
  1954 ;;
  1955                           
  1956                           
  1957                           ;psect for function _eeprom_read
  1958  0D58                     _eeprom_read:	
  1959                           
  1960                           ;incstack = 0
  1961                           ; Regs used in _eeprom_read: [wreg+status,2+status,0]
  1962                           ;eeprom_read@addr stored from wreg
  1963  0D58  00F4               	movwf	eeprom_read@addr
  1964  0D59                     l376:	
  1965                           ;C:\Program Files (x86)\Microchip\xc8\v2.10\pic\sources\c99\pic\__eeread.c: 6: eeprom_re
      +                          ad(unsigned char addr);C:\Program Files (x86)\Microchip\xc8\v2.10\pic\sources\c99\pic\__
      +                          eeread.c: 7: {;C:\Program Files (x86)\Microchip\xc8\v2.10\pic\sources\c99\pic\__eeread.c
      +                          : 8:  do
  1966                           
  1967  0D59  0064               	clrwdt	;# 
  1968  0D5A  0023               	movlb	3	; select bank3
  1969  0D5B  1895               	btfsc	21,1	;volsfr
  1970  0D5C  2D5E               	goto	u1161
  1971  0D5D  2D5F               	goto	u1160
  1972  0D5E                     u1161:	
  1973  0D5E  2D59               	goto	l376
  1974  0D5F                     u1160:	
  1975  0D5F                     l1714:	
  1976                           
  1977                           ;C:\Program Files (x86)\Microchip\xc8\v2.10\pic\sources\c99\pic\__eeread.c: 18:  return 
      +                          ( EEADR = addr, EECON1 &= 0x3F, EECON1bits.RD = 1, EEDATA);
  1978  0D5F  0874               	movf	eeprom_read@addr,w
  1979  0D60  00F1               	movwf	??_eeprom_read
  1980  0D61  01F2               	clrf	??_eeprom_read+1
  1981  0D62  0871               	movf	??_eeprom_read,w
  1982  0D63  0091               	movwf	17	;volatile
  1983  0D64  0872               	movf	??_eeprom_read+1,w
  1984  0D65  0092               	movwf	18	;volatile
  1985  0D66  303F               	movlw	63
  1986  0D67  00F3               	movwf	??_eeprom_read+2
  1987  0D68  0873               	movf	??_eeprom_read+2,w
  1988  0D69  0595               	andwf	21,f	;volsfr
  1989  0D6A  1415               	bsf	21,0	;volsfr
  1990  0D6B  0813               	movf	19,w	;volatile
  1991  0D6C                     l378:	
  1992  0D6C  0008               	return
  1993  0D6D                     __end_of_eeprom_read:	
  1994                           
  1995                           	psect	text3
  1996  0E55                     __ptext3:	
  1997 ;; *************** function ___lwmod *****************
  1998 ;; Defined at:
  1999 ;;		line 5 in file "C:\Program Files (x86)\Microchip\xc8\v2.10\pic\sources\c99\common\lwmod.c"
  2000 ;; Parameters:    Size  Location     Type
  2001 ;;  divisor         2    1[COMMON] unsigned int 
  2002 ;;  dividend        2    3[COMMON] unsigned int 
  2003 ;; Auto vars:     Size  Location     Type
  2004 ;;  counter         1    6[COMMON] unsigned char 
  2005 ;; Return value:  Size  Location     Type
  2006 ;;                  2    1[COMMON] unsigned int 
  2007 ;; Registers used:
  2008 ;;		wreg, status,2, status,0
  2009 ;; Tracked objects:
  2010 ;;		On entry : 0/0
  2011 ;;		On exit  : 0/0
  2012 ;;		Unchanged: 0/0
  2013 ;; Data sizes:     COMMON   BANK0   BANK1   BANK2
  2014 ;;      Params:         4       0       0       0
  2015 ;;      Locals:         1       0       0       0
  2016 ;;      Temps:          1       0       0       0
  2017 ;;      Totals:         6       0       0       0
  2018 ;;Total ram usage:        6 bytes
  2019 ;; Hardware stack levels used:    1
  2020 ;; Hardware stack levels required when called:    1
  2021 ;; This function calls:
  2022 ;;		Nothing
  2023 ;; This function is called by:
  2024 ;;		_update_eeprom
  2025 ;; This function uses a non-reentrant model
  2026 ;;
  2027                           
  2028                           
  2029                           ;psect for function ___lwmod
  2030  0E55                     ___lwmod:	
  2031  0E55                     l1846:	
  2032                           ;incstack = 0
  2033                           ; Regs used in ___lwmod: [wreg+status,2+status,0]
  2034                           
  2035  0E55  0871               	movf	___lwmod@divisor,w
  2036  0E56  0472               	iorwf	___lwmod@divisor+1,w
  2037  0E57  1903               	btfsc	3,2
  2038  0E58  2E5A               	goto	u1461
  2039  0E59  2E5B               	goto	u1460
  2040  0E5A                     u1461:	
  2041  0E5A  2E84               	goto	l1864
  2042  0E5B                     u1460:	
  2043  0E5B                     l1848:	
  2044  0E5B  01F6               	clrf	___lwmod@counter
  2045  0E5C  0AF6               	incf	___lwmod@counter,f
  2046  0E5D  2E67               	goto	l1854
  2047  0E5E                     l1850:	
  2048  0E5E  3001               	movlw	1
  2049  0E5F                     u1475:	
  2050  0E5F  35F1               	lslf	___lwmod@divisor,f
  2051  0E60  0DF2               	rlf	___lwmod@divisor+1,f
  2052  0E61  0B89               	decfsz	9,f
  2053  0E62  2E5F               	goto	u1475
  2054  0E63                     l1852:	
  2055  0E63  3001               	movlw	1
  2056  0E64  00F5               	movwf	??___lwmod
  2057  0E65  0875               	movf	??___lwmod,w
  2058  0E66  07F6               	addwf	___lwmod@counter,f
  2059  0E67                     l1854:	
  2060  0E67  1FF2               	btfss	___lwmod@divisor+1,7
  2061  0E68  2E6A               	goto	u1481
  2062  0E69  2E6B               	goto	u1480
  2063  0E6A                     u1481:	
  2064  0E6A  2E5E               	goto	l1850
  2065  0E6B                     u1480:	
  2066  0E6B                     l1856:	
  2067  0E6B  0872               	movf	___lwmod@divisor+1,w
  2068  0E6C  0274               	subwf	___lwmod@dividend+1,w
  2069  0E6D  1D03               	skipz
  2070  0E6E  2E71               	goto	u1495
  2071  0E6F  0871               	movf	___lwmod@divisor,w
  2072  0E70  0273               	subwf	___lwmod@dividend,w
  2073  0E71                     u1495:	
  2074  0E71  1C03               	skipc
  2075  0E72  2E74               	goto	u1491
  2076  0E73  2E75               	goto	u1490
  2077  0E74                     u1491:	
  2078  0E74  2E79               	goto	l1860
  2079  0E75                     u1490:	
  2080  0E75                     l1858:	
  2081  0E75  0871               	movf	___lwmod@divisor,w
  2082  0E76  02F3               	subwf	___lwmod@dividend,f
  2083  0E77  0872               	movf	___lwmod@divisor+1,w
  2084  0E78  3BF4               	subwfb	___lwmod@dividend+1,f
  2085  0E79                     l1860:	
  2086  0E79  3001               	movlw	1
  2087  0E7A                     u1505:	
  2088  0E7A  36F2               	lsrf	___lwmod@divisor+1,f
  2089  0E7B  0CF1               	rrf	___lwmod@divisor,f
  2090  0E7C  0B89               	decfsz	9,f
  2091  0E7D  2E7A               	goto	u1505
  2092  0E7E                     l1862:	
  2093  0E7E  3001               	movlw	1
  2094  0E7F  02F6               	subwf	___lwmod@counter,f
  2095  0E80  1D03               	btfss	3,2
  2096  0E81  2E83               	goto	u1511
  2097  0E82  2E84               	goto	u1510
  2098  0E83                     u1511:	
  2099  0E83  2E6B               	goto	l1856
  2100  0E84                     u1510:	
  2101  0E84                     l1864:	
  2102  0E84  0874               	movf	___lwmod@dividend+1,w
  2103  0E85  00F2               	movwf	?___lwmod+1
  2104  0E86  0873               	movf	___lwmod@dividend,w
  2105  0E87  00F1               	movwf	?___lwmod
  2106  0E88                     l696:	
  2107  0E88  0008               	return
  2108  0E89                     __end_of___lwmod:	
  2109                           
  2110                           	psect	text4
  2111  0E89                     __ptext4:	
  2112 ;; *************** function ___lwdiv *****************
  2113 ;; Defined at:
  2114 ;;		line 5 in file "C:\Program Files (x86)\Microchip\xc8\v2.10\pic\sources\c99\common\lwdiv.c"
  2115 ;; Parameters:    Size  Location     Type
  2116 ;;  divisor         2    7[COMMON] unsigned int 
  2117 ;;  dividend        2    9[COMMON] unsigned int 
  2118 ;; Auto vars:     Size  Location     Type
  2119 ;;  quotient        2    0[BANK0 ] unsigned int 
  2120 ;;  counter         1    2[BANK0 ] unsigned char 
  2121 ;; Return value:  Size  Location     Type
  2122 ;;                  2    7[COMMON] unsigned int 
  2123 ;; Registers used:
  2124 ;;		wreg, status,2, status,0
  2125 ;; Tracked objects:
  2126 ;;		On entry : 0/0
  2127 ;;		On exit  : 0/0
  2128 ;;		Unchanged: 0/0
  2129 ;; Data sizes:     COMMON   BANK0   BANK1   BANK2
  2130 ;;      Params:         4       0       0       0
  2131 ;;      Locals:         0       3       0       0
  2132 ;;      Temps:          1       0       0       0
  2133 ;;      Totals:         5       3       0       0
  2134 ;;Total ram usage:        8 bytes
  2135 ;; Hardware stack levels used:    1
  2136 ;; Hardware stack levels required when called:    1
  2137 ;; This function calls:
  2138 ;;		Nothing
  2139 ;; This function is called by:
  2140 ;;		_update_eeprom
  2141 ;; This function uses a non-reentrant model
  2142 ;;
  2143                           
  2144                           
  2145                           ;psect for function ___lwdiv
  2146  0E89                     ___lwdiv:	
  2147  0E89                     l1820:	
  2148                           ;incstack = 0
  2149                           ; Regs used in ___lwdiv: [wreg+status,2+status,0]
  2150                           
  2151  0E89  0020               	movlb	0	; select bank0
  2152  0E8A  01D6               	clrf	___lwdiv@quotient
  2153  0E8B  01D7               	clrf	___lwdiv@quotient+1
  2154  0E8C                     l1822:	
  2155  0E8C  0877               	movf	___lwdiv@divisor,w
  2156  0E8D  0478               	iorwf	___lwdiv@divisor+1,w
  2157  0E8E  1903               	btfsc	3,2
  2158  0E8F  2E91               	goto	u1391
  2159  0E90  2E92               	goto	u1390
  2160  0E91                     u1391:	
  2161  0E91  2EC1               	goto	l1842
  2162  0E92                     u1390:	
  2163  0E92                     l1824:	
  2164  0E92  01D8               	clrf	___lwdiv@counter
  2165  0E93  0AD8               	incf	___lwdiv@counter,f
  2166  0E94  2E9E               	goto	l1830
  2167  0E95                     l1826:	
  2168  0E95  3001               	movlw	1
  2169  0E96                     u1405:	
  2170  0E96  35F7               	lslf	___lwdiv@divisor,f
  2171  0E97  0DF8               	rlf	___lwdiv@divisor+1,f
  2172  0E98  0B89               	decfsz	9,f
  2173  0E99  2E96               	goto	u1405
  2174  0E9A                     l1828:	
  2175  0E9A  3001               	movlw	1
  2176  0E9B  00FB               	movwf	??___lwdiv
  2177  0E9C  087B               	movf	??___lwdiv,w
  2178  0E9D  07D8               	addwf	___lwdiv@counter,f
  2179  0E9E                     l1830:	
  2180  0E9E  1FF8               	btfss	___lwdiv@divisor+1,7
  2181  0E9F  2EA1               	goto	u1411
  2182  0EA0  2EA2               	goto	u1410
  2183  0EA1                     u1411:	
  2184  0EA1  2E95               	goto	l1826
  2185  0EA2                     u1410:	
  2186  0EA2                     l1832:	
  2187  0EA2  3001               	movlw	1
  2188  0EA3                     u1425:	
  2189  0EA3  35D6               	lslf	___lwdiv@quotient,f
  2190  0EA4  0DD7               	rlf	___lwdiv@quotient+1,f
  2191  0EA5  0B89               	decfsz	9,f
  2192  0EA6  2EA3               	goto	u1425
  2193  0EA7  0878               	movf	___lwdiv@divisor+1,w
  2194  0EA8  027A               	subwf	___lwdiv@dividend+1,w
  2195  0EA9  1D03               	skipz
  2196  0EAA  2EAD               	goto	u1435
  2197  0EAB  0877               	movf	___lwdiv@divisor,w
  2198  0EAC  0279               	subwf	___lwdiv@dividend,w
  2199  0EAD                     u1435:	
  2200  0EAD  1C03               	skipc
  2201  0EAE  2EB0               	goto	u1431
  2202  0EAF  2EB1               	goto	u1430
  2203  0EB0                     u1431:	
  2204  0EB0  2EB6               	goto	l1838
  2205  0EB1                     u1430:	
  2206  0EB1                     l1834:	
  2207  0EB1  0877               	movf	___lwdiv@divisor,w
  2208  0EB2  02F9               	subwf	___lwdiv@dividend,f
  2209  0EB3  0878               	movf	___lwdiv@divisor+1,w
  2210  0EB4  3BFA               	subwfb	___lwdiv@dividend+1,f
  2211  0EB5                     l1836:	
  2212  0EB5  1456               	bsf	___lwdiv@quotient,0
  2213  0EB6                     l1838:	
  2214  0EB6  3001               	movlw	1
  2215  0EB7                     u1445:	
  2216  0EB7  36F8               	lsrf	___lwdiv@divisor+1,f
  2217  0EB8  0CF7               	rrf	___lwdiv@divisor,f
  2218  0EB9  0B89               	decfsz	9,f
  2219  0EBA  2EB7               	goto	u1445
  2220  0EBB                     l1840:	
  2221  0EBB  3001               	movlw	1
  2222  0EBC  02D8               	subwf	___lwdiv@counter,f
  2223  0EBD  1D03               	btfss	3,2
  2224  0EBE  2EC0               	goto	u1451
  2225  0EBF  2EC1               	goto	u1450
  2226  0EC0                     u1451:	
  2227  0EC0  2EA2               	goto	l1832
  2228  0EC1                     u1450:	
  2229  0EC1                     l1842:	
  2230  0EC1  0857               	movf	___lwdiv@quotient+1,w
  2231  0EC2  00F8               	movwf	?___lwdiv+1
  2232  0EC3  0856               	movf	___lwdiv@quotient,w
  2233  0EC4  00F7               	movwf	?___lwdiv
  2234  0EC5                     l686:	
  2235  0EC5  0008               	return
  2236  0EC6                     __end_of___lwdiv:	
  2237                           
  2238                           	psect	text5
  2239  0D4B                     __ptext5:	
  2240 ;; *************** function _timer_0_config *****************
  2241 ;; Defined at:
  2242 ;;		line 65 in file "main.c"
  2243 ;; Parameters:    Size  Location     Type
  2244 ;;		None
  2245 ;; Auto vars:     Size  Location     Type
  2246 ;;		None
  2247 ;; Return value:  Size  Location     Type
  2248 ;;                  1    wreg      void 
  2249 ;; Registers used:
  2250 ;;		wreg, status,2, status,0
  2251 ;; Tracked objects:
  2252 ;;		On entry : 0/0
  2253 ;;		On exit  : 0/0
  2254 ;;		Unchanged: 0/0
  2255 ;; Data sizes:     COMMON   BANK0   BANK1   BANK2
  2256 ;;      Params:         0       0       0       0
  2257 ;;      Locals:         0       0       0       0
  2258 ;;      Temps:          0       0       0       0
  2259 ;;      Totals:         0       0       0       0
  2260 ;;Total ram usage:        0 bytes
  2261 ;; Hardware stack levels used:    1
  2262 ;; Hardware stack levels required when called:    1
  2263 ;; This function calls:
  2264 ;;		Nothing
  2265 ;; This function is called by:
  2266 ;;		_main
  2267 ;; This function uses a non-reentrant model
  2268 ;;
  2269                           
  2270                           
  2271                           ;psect for function _timer_0_config
  2272  0D4B                     _timer_0_config:	
  2273  0D4B                     l1906:	
  2274                           ;incstack = 0
  2275                           ; Regs used in _timer_0_config: [wreg+status,2+status,0]
  2276                           
  2277                           
  2278                           ;main.c: 66:     TMR0 = 0;
  2279  0D4B  0020               	movlb	0	; select bank0
  2280  0D4C  0195               	clrf	21	;volatile
  2281  0D4D                     l1908:	
  2282                           
  2283                           ;main.c: 67:     OPTION_REGbits.TMR0CS = 0;
  2284  0D4D  0021               	movlb	1	; select bank1
  2285  0D4E  1295               	bcf	21,5	;volatile
  2286  0D4F                     l1910:	
  2287                           
  2288                           ;main.c: 68:     OPTION_REGbits.PSA = 0;
  2289  0D4F  1195               	bcf	21,3	;volatile
  2290  0D50                     l1912:	
  2291                           
  2292                           ;main.c: 69:     OPTION_REGbits.PS = 0b111;
  2293  0D50  3007               	movlw	7
  2294  0D51  0495               	iorwf	21,f	;volatile
  2295  0D52                     l1914:	
  2296                           
  2297                           ;main.c: 70:     OPTION_REGbits.TMR0CS = 0;
  2298  0D52  1295               	bcf	21,5	;volatile
  2299  0D53                     l1916:	
  2300                           
  2301                           ;main.c: 72:     INTCONbits.PEIE = 1;
  2302  0D53  170B               	bsf	11,6	;volatile
  2303  0D54                     l1918:	
  2304                           
  2305                           ;main.c: 73:     INTCONbits.TMR0IF = 0;
  2306  0D54  110B               	bcf	11,2	;volatile
  2307  0D55                     l1920:	
  2308                           
  2309                           ;main.c: 74:     INTCONbits.TMR0IE = 0;
  2310  0D55  128B               	bcf	11,5	;volatile
  2311  0D56                     l1922:	
  2312                           
  2313                           ;main.c: 75:     INTCONbits.GIE = 0;
  2314  0D56  138B               	bcf	11,7	;volatile
  2315  0D57                     l155:	
  2316  0D57  0008               	return
  2317  0D58                     __end_of_timer_0_config:	
  2318                           
  2319                           	psect	text6
  2320  0692                     __ptext6:	
  2321 ;; *************** function _proceso_subir_bajar_tiempo *****************
  2322 ;; Defined at:
  2323 ;;		line 167 in file "main.c"
  2324 ;; Parameters:    Size  Location     Type
  2325 ;;		None
  2326 ;; Auto vars:     Size  Location     Type
  2327 ;;		None
  2328 ;; Return value:  Size  Location     Type
  2329 ;;                  1    wreg      void 
  2330 ;; Registers used:
  2331 ;;		wreg, fsr1l, fsr1h, status,2, status,0, pclath, cstack
  2332 ;; Tracked objects:
  2333 ;;		On entry : 0/0
  2334 ;;		On exit  : 0/0
  2335 ;;		Unchanged: 0/0
  2336 ;; Data sizes:     COMMON   BANK0   BANK1   BANK2
  2337 ;;      Params:         0       0       0       0
  2338 ;;      Locals:         0       0       0       0
  2339 ;;      Temps:          0       0       0       0
  2340 ;;      Totals:         0       0       0       0
  2341 ;;Total ram usage:        0 bytes
  2342 ;; Hardware stack levels used:    1
  2343 ;; Hardware stack levels required when called:    3
  2344 ;; This function calls:
  2345 ;;		___awdiv
  2346 ;;		___awmod
  2347 ;;		_input_pulsador_bajar
  2348 ;;		_input_pulsador_subir
  2349 ;;		_max7219_writeChar
  2350 ;; This function is called by:
  2351 ;;		_main
  2352 ;; This function uses a non-reentrant model
  2353 ;;
  2354                           
  2355                           
  2356                           ;psect for function _proceso_subir_bajar_tiempo
  2357  0692                     _proceso_subir_bajar_tiempo:	
  2358  0692                     l2062:	
  2359                           ;incstack = 0
  2360                           ; Regs used in _proceso_subir_bajar_tiempo: [wreg+fsr1l+fsr1h+status,2+status,0+pclath+c
      +                          stack]
  2361                           
  2362                           
  2363                           ;main.c: 168:     if (input_pulsador_subir()) {
  2364  0692  318D  25D4  3186   	fcall	_input_pulsador_subir
  2365  0695  0871               	movf	?_input_pulsador_subir,w
  2366  0696  0472               	iorwf	?_input_pulsador_subir+1,w
  2367  0697  1903               	btfsc	3,2
  2368  0698  2E9A               	goto	u1641
  2369  0699  2E9B               	goto	u1640
  2370  069A                     u1641:	
  2371  069A  2ED8               	goto	l2072
  2372  069B                     u1640:	
  2373  069B                     l2064:	
  2374                           
  2375                           ;main.c: 169:         if (++minutos_set == 60) {
  2376  069B  3001               	movlw	1
  2377  069C  0020               	movlb	0	; select bank0
  2378  069D  07B8               	addwf	_minutos_set,f
  2379  069E  3000               	movlw	0
  2380  069F  3DB9               	addwfc	_minutos_set+1,f
  2381  06A0  303C               	movlw	60
  2382  06A1  0638               	xorwf	_minutos_set,w
  2383  06A2  0439               	iorwf	_minutos_set+1,w
  2384  06A3  1D03               	btfss	3,2
  2385  06A4  2EA6               	goto	u1651
  2386  06A5  2EA7               	goto	u1650
  2387  06A6                     u1651:	
  2388  06A6  2EA9               	goto	l2068
  2389  06A7                     u1650:	
  2390  06A7                     l2066:	
  2391                           
  2392                           ;main.c: 170:             minutos_set = 0;
  2393  06A7  01B8               	clrf	_minutos_set
  2394  06A8  01B9               	clrf	_minutos_set+1
  2395  06A9                     l2068:	
  2396                           
  2397                           ;main.c: 172:         max7219_writeChar(1, minutos_set / 10);
  2398  06A9  3001               	movlw	1
  2399  06AA  00D9               	movwf	max7219_writeChar@pos
  2400  06AB  3000               	movlw	0
  2401  06AC  00DA               	movwf	max7219_writeChar@pos+1
  2402  06AD  300A               	movlw	10
  2403  06AE  00F1               	movwf	___awdiv@divisor
  2404  06AF  3000               	movlw	0
  2405  06B0  00F2               	movwf	___awdiv@divisor+1
  2406  06B1  0839               	movf	_minutos_set+1,w
  2407  06B2  00F4               	movwf	___awdiv@dividend+1
  2408  06B3  0838               	movf	_minutos_set,w
  2409  06B4  00F3               	movwf	___awdiv@dividend
  2410  06B5  3187  278B  3186   	fcall	___awdiv
  2411  06B8  0872               	movf	?___awdiv+1,w
  2412  06B9  0020               	movlb	0	; select bank0
  2413  06BA  00DC               	movwf	max7219_writeChar@data+1
  2414  06BB  0871               	movf	?___awdiv,w
  2415  06BC  00DB               	movwf	max7219_writeChar@data
  2416  06BD  318F  27A6  3186   	fcall	_max7219_writeChar
  2417  06C0                     l2070:	
  2418                           
  2419                           ;main.c: 173:         max7219_writeChar(5, minutos_set % 10);
  2420  06C0  3005               	movlw	5
  2421  06C1  0020               	movlb	0	; select bank0
  2422  06C2  00D9               	movwf	max7219_writeChar@pos
  2423  06C3  3000               	movlw	0
  2424  06C4  00DA               	movwf	max7219_writeChar@pos+1
  2425  06C5  300A               	movlw	10
  2426  06C6  00F1               	movwf	___awmod@divisor
  2427  06C7  3000               	movlw	0
  2428  06C8  00F2               	movwf	___awmod@divisor+1
  2429  06C9  0839               	movf	_minutos_set+1,w
  2430  06CA  00F4               	movwf	___awmod@dividend+1
  2431  06CB  0838               	movf	_minutos_set,w
  2432  06CC  00F3               	movwf	___awmod@dividend
  2433  06CD  318F  2753  3186   	fcall	___awmod
  2434  06D0  0872               	movf	?___awmod+1,w
  2435  06D1  0020               	movlb	0	; select bank0
  2436  06D2  00DC               	movwf	max7219_writeChar@data+1
  2437  06D3  0871               	movf	?___awmod,w
  2438  06D4  00DB               	movwf	max7219_writeChar@data
  2439  06D5  318F  27A6  3186   	fcall	_max7219_writeChar
  2440  06D8                     l2072:	
  2441                           
  2442                           ;main.c: 176:     if (input_pulsador_bajar()) {
  2443  06D8  318D  25AE  3186   	fcall	_input_pulsador_bajar
  2444  06DB  0871               	movf	?_input_pulsador_bajar,w
  2445  06DC  0472               	iorwf	?_input_pulsador_bajar+1,w
  2446  06DD  1903               	btfsc	3,2
  2447  06DE  2EE0               	goto	u1661
  2448  06DF  2EE1               	goto	u1660
  2449  06E0                     u1661:	
  2450  06E0  2F1E               	goto	l190
  2451  06E1                     u1660:	
  2452  06E1                     l2074:	
  2453                           
  2454                           ;main.c: 177:         if (++segundos_set == 60) {
  2455  06E1  3001               	movlw	1
  2456  06E2  0020               	movlb	0	; select bank0
  2457  06E3  07B6               	addwf	_segundos_set,f
  2458  06E4  3000               	movlw	0
  2459  06E5  3DB7               	addwfc	_segundos_set+1,f
  2460  06E6  303C               	movlw	60
  2461  06E7  0636               	xorwf	_segundos_set,w
  2462  06E8  0437               	iorwf	_segundos_set+1,w
  2463  06E9  1D03               	btfss	3,2
  2464  06EA  2EEC               	goto	u1671
  2465  06EB  2EED               	goto	u1670
  2466  06EC                     u1671:	
  2467  06EC  2EEF               	goto	l2078
  2468  06ED                     u1670:	
  2469  06ED                     l2076:	
  2470                           
  2471                           ;main.c: 178:             segundos_set = 0;
  2472  06ED  01B6               	clrf	_segundos_set
  2473  06EE  01B7               	clrf	_segundos_set+1
  2474  06EF                     l2078:	
  2475                           
  2476                           ;main.c: 180:         max7219_writeChar(7, segundos_set / 10);
  2477  06EF  3007               	movlw	7
  2478  06F0  00D9               	movwf	max7219_writeChar@pos
  2479  06F1  3000               	movlw	0
  2480  06F2  00DA               	movwf	max7219_writeChar@pos+1
  2481  06F3  300A               	movlw	10
  2482  06F4  00F1               	movwf	___awdiv@divisor
  2483  06F5  3000               	movlw	0
  2484  06F6  00F2               	movwf	___awdiv@divisor+1
  2485  06F7  0837               	movf	_segundos_set+1,w
  2486  06F8  00F4               	movwf	___awdiv@dividend+1
  2487  06F9  0836               	movf	_segundos_set,w
  2488  06FA  00F3               	movwf	___awdiv@dividend
  2489  06FB  3187  278B  3186   	fcall	___awdiv
  2490  06FE  0872               	movf	?___awdiv+1,w
  2491  06FF  0020               	movlb	0	; select bank0
  2492  0700  00DC               	movwf	max7219_writeChar@data+1
  2493  0701  0871               	movf	?___awdiv,w
  2494  0702  00DB               	movwf	max7219_writeChar@data
  2495  0703  318F  27A6  3186   	fcall	_max7219_writeChar
  2496  0706                     l2080:	
  2497                           
  2498                           ;main.c: 181:         max7219_writeChar(3, segundos_set % 10);
  2499  0706  3003               	movlw	3
  2500  0707  0020               	movlb	0	; select bank0
  2501  0708  00D9               	movwf	max7219_writeChar@pos
  2502  0709  3000               	movlw	0
  2503  070A  00DA               	movwf	max7219_writeChar@pos+1
  2504  070B  300A               	movlw	10
  2505  070C  00F1               	movwf	___awmod@divisor
  2506  070D  3000               	movlw	0
  2507  070E  00F2               	movwf	___awmod@divisor+1
  2508  070F  0837               	movf	_segundos_set+1,w
  2509  0710  00F4               	movwf	___awmod@dividend+1
  2510  0711  0836               	movf	_segundos_set,w
  2511  0712  00F3               	movwf	___awmod@dividend
  2512  0713  318F  2753  3186   	fcall	___awmod
  2513  0716  0872               	movf	?___awmod+1,w
  2514  0717  0020               	movlb	0	; select bank0
  2515  0718  00DC               	movwf	max7219_writeChar@data+1
  2516  0719  0871               	movf	?___awmod,w
  2517  071A  00DB               	movwf	max7219_writeChar@data
  2518  071B  318F  27A6  3186   	fcall	_max7219_writeChar
  2519  071E                     l190:	
  2520  071E  0008               	return
  2521  071F                     __end_of_proceso_subir_bajar_tiempo:	
  2522                           
  2523                           	psect	text7
  2524  0DD4                     __ptext7:	
  2525 ;; *************** function _input_pulsador_subir *****************
  2526 ;; Defined at:
  2527 ;;		line 27 in file "./input.h"
  2528 ;; Parameters:    Size  Location     Type
  2529 ;;		None
  2530 ;; Auto vars:     Size  Location     Type
  2531 ;;		None
  2532 ;; Return value:  Size  Location     Type
  2533 ;;                  2    1[COMMON] unsigned int 
  2534 ;; Registers used:
  2535 ;;		wreg, status,2
  2536 ;; Tracked objects:
  2537 ;;		On entry : 0/0
  2538 ;;		On exit  : 0/0
  2539 ;;		Unchanged: 0/0
  2540 ;; Data sizes:     COMMON   BANK0   BANK1   BANK2
  2541 ;;      Params:         2       0       0       0
  2542 ;;      Locals:         0       0       0       0
  2543 ;;      Temps:          1       0       0       0
  2544 ;;      Totals:         3       0       0       0
  2545 ;;Total ram usage:        3 bytes
  2546 ;; Hardware stack levels used:    1
  2547 ;; Hardware stack levels required when called:    1
  2548 ;; This function calls:
  2549 ;;		Nothing
  2550 ;; This function is called by:
  2551 ;;		_proceso_subir_bajar_tiempo
  2552 ;; This function uses a non-reentrant model
  2553 ;;
  2554                           
  2555                           
  2556                           ;psect for function _input_pulsador_subir
  2557  0DD4                     _input_pulsador_subir:	
  2558  0DD4                     l1642:	
  2559                           ;incstack = 0
  2560                           ; Regs used in _input_pulsador_subir: [wreg+status,2]
  2561                           
  2562                           
  2563                           ;./input.h: 28:     static int contador = 0;;./input.h: 29:     if (PORTAbits.RA3) {
  2564  0DD4  0020               	movlb	0	; select bank0
  2565  0DD5  1D8C               	btfss	12,3	;volatile
  2566  0DD6  2DD8               	goto	u1101
  2567  0DD7  2DD9               	goto	u1100
  2568  0DD8                     u1101:	
  2569  0DD8  2DF2               	goto	l1652
  2570  0DD9                     u1100:	
  2571  0DD9                     l1644:	
  2572                           
  2573                           ;./input.h: 30:         if (++contador > 10000) {
  2574  0DD9  3001               	movlw	1
  2575  0DDA  07BE               	addwf	input_pulsador_subir@contador,f
  2576  0DDB  3000               	movlw	0
  2577  0DDC  3DBF               	addwfc	input_pulsador_subir@contador+1,f
  2578  0DDD  083F               	movf	input_pulsador_subir@contador+1,w
  2579  0DDE  3A80               	xorlw	128
  2580  0DDF  00F3               	movwf	??_input_pulsador_subir
  2581  0DE0  30A7               	movlw	167
  2582  0DE1  0273               	subwf	??_input_pulsador_subir,w
  2583  0DE2  1D03               	skipz
  2584  0DE3  2DE6               	goto	u1115
  2585  0DE4  3011               	movlw	17
  2586  0DE5  023E               	subwf	input_pulsador_subir@contador,w
  2587  0DE6                     u1115:	
  2588  0DE6  1C03               	skipc
  2589  0DE7  2DE9               	goto	u1111
  2590  0DE8  2DEA               	goto	u1110
  2591  0DE9                     u1111:	
  2592  0DE9  2DF7               	goto	l1656
  2593  0DEA                     u1110:	
  2594  0DEA                     l1646:	
  2595                           
  2596                           ;./input.h: 31:             contador = 0;
  2597  0DEA  0020               	movlb	0	; select bank0
  2598  0DEB  01BE               	clrf	input_pulsador_subir@contador
  2599  0DEC  01BF               	clrf	input_pulsador_subir@contador+1
  2600  0DED                     l1648:	
  2601                           
  2602                           ;./input.h: 32:             return 1;
  2603  0DED  3001               	movlw	1
  2604  0DEE  00F1               	movwf	?_input_pulsador_subir
  2605  0DEF  3000               	movlw	0
  2606  0DF0  00F2               	movwf	?_input_pulsador_subir+1
  2607  0DF1  2DF9               	goto	l91
  2608  0DF2                     l1652:	
  2609                           
  2610                           ;./input.h: 35:         contador = 0;
  2611  0DF2  01BE               	clrf	input_pulsador_subir@contador
  2612  0DF3  01BF               	clrf	input_pulsador_subir@contador+1
  2613                           
  2614                           ;./input.h: 36:         return 0;
  2615  0DF4  01F1               	clrf	?_input_pulsador_subir
  2616  0DF5  01F2               	clrf	?_input_pulsador_subir+1
  2617  0DF6  2DF9               	goto	l91
  2618  0DF7                     l1656:	
  2619                           
  2620                           ;./input.h: 38:     return 0;
  2621  0DF7  01F1               	clrf	?_input_pulsador_subir
  2622  0DF8  01F2               	clrf	?_input_pulsador_subir+1
  2623  0DF9                     l91:	
  2624  0DF9  0008               	return
  2625  0DFA                     __end_of_input_pulsador_subir:	
  2626                           
  2627                           	psect	text8
  2628  0DAE                     __ptext8:	
  2629 ;; *************** function _input_pulsador_bajar *****************
  2630 ;; Defined at:
  2631 ;;		line 41 in file "./input.h"
  2632 ;; Parameters:    Size  Location     Type
  2633 ;;		None
  2634 ;; Auto vars:     Size  Location     Type
  2635 ;;		None
  2636 ;; Return value:  Size  Location     Type
  2637 ;;                  2    1[COMMON] unsigned int 
  2638 ;; Registers used:
  2639 ;;		wreg, status,2
  2640 ;; Tracked objects:
  2641 ;;		On entry : 0/0
  2642 ;;		On exit  : 0/0
  2643 ;;		Unchanged: 0/0
  2644 ;; Data sizes:     COMMON   BANK0   BANK1   BANK2
  2645 ;;      Params:         2       0       0       0
  2646 ;;      Locals:         0       0       0       0
  2647 ;;      Temps:          1       0       0       0
  2648 ;;      Totals:         3       0       0       0
  2649 ;;Total ram usage:        3 bytes
  2650 ;; Hardware stack levels used:    1
  2651 ;; Hardware stack levels required when called:    1
  2652 ;; This function calls:
  2653 ;;		Nothing
  2654 ;; This function is called by:
  2655 ;;		_proceso_subir_bajar_tiempo
  2656 ;; This function uses a non-reentrant model
  2657 ;;
  2658                           
  2659                           
  2660                           ;psect for function _input_pulsador_bajar
  2661  0DAE                     _input_pulsador_bajar:	
  2662  0DAE                     l1660:	
  2663                           ;incstack = 0
  2664                           ; Regs used in _input_pulsador_bajar: [wreg+status,2]
  2665                           
  2666                           
  2667                           ;./input.h: 42:     static int contador = 0;;./input.h: 43:     if (PORTCbits.RC5) {
  2668  0DAE  0020               	movlb	0	; select bank0
  2669  0DAF  1E8E               	btfss	14,5	;volatile
  2670  0DB0  2DB2               	goto	u1121
  2671  0DB1  2DB3               	goto	u1120
  2672  0DB2                     u1121:	
  2673  0DB2  2DCC               	goto	l1670
  2674  0DB3                     u1120:	
  2675  0DB3                     l1662:	
  2676                           
  2677                           ;./input.h: 44:         if (++contador > 10000) {
  2678  0DB3  3001               	movlw	1
  2679  0DB4  07BC               	addwf	input_pulsador_bajar@contador,f
  2680  0DB5  3000               	movlw	0
  2681  0DB6  3DBD               	addwfc	input_pulsador_bajar@contador+1,f
  2682  0DB7  083D               	movf	input_pulsador_bajar@contador+1,w
  2683  0DB8  3A80               	xorlw	128
  2684  0DB9  00F3               	movwf	??_input_pulsador_bajar
  2685  0DBA  30A7               	movlw	167
  2686  0DBB  0273               	subwf	??_input_pulsador_bajar,w
  2687  0DBC  1D03               	skipz
  2688  0DBD  2DC0               	goto	u1135
  2689  0DBE  3011               	movlw	17
  2690  0DBF  023C               	subwf	input_pulsador_bajar@contador,w
  2691  0DC0                     u1135:	
  2692  0DC0  1C03               	skipc
  2693  0DC1  2DC3               	goto	u1131
  2694  0DC2  2DC4               	goto	u1130
  2695  0DC3                     u1131:	
  2696  0DC3  2DD1               	goto	l1674
  2697  0DC4                     u1130:	
  2698  0DC4                     l1664:	
  2699                           
  2700                           ;./input.h: 45:             contador = 0;
  2701  0DC4  0020               	movlb	0	; select bank0
  2702  0DC5  01BC               	clrf	input_pulsador_bajar@contador
  2703  0DC6  01BD               	clrf	input_pulsador_bajar@contador+1
  2704  0DC7                     l1666:	
  2705                           
  2706                           ;./input.h: 46:             return 1;
  2707  0DC7  3001               	movlw	1
  2708  0DC8  00F1               	movwf	?_input_pulsador_bajar
  2709  0DC9  3000               	movlw	0
  2710  0DCA  00F2               	movwf	?_input_pulsador_bajar+1
  2711  0DCB  2DD3               	goto	l99
  2712  0DCC                     l1670:	
  2713                           
  2714                           ;./input.h: 49:         contador = 0;
  2715  0DCC  01BC               	clrf	input_pulsador_bajar@contador
  2716  0DCD  01BD               	clrf	input_pulsador_bajar@contador+1
  2717                           
  2718                           ;./input.h: 50:         return 0;
  2719  0DCE  01F1               	clrf	?_input_pulsador_bajar
  2720  0DCF  01F2               	clrf	?_input_pulsador_bajar+1
  2721  0DD0  2DD3               	goto	l99
  2722  0DD1                     l1674:	
  2723                           
  2724                           ;./input.h: 52:     return 0;
  2725  0DD1  01F1               	clrf	?_input_pulsador_bajar
  2726  0DD2  01F2               	clrf	?_input_pulsador_bajar+1
  2727  0DD3                     l99:	
  2728  0DD3  0008               	return
  2729  0DD4                     __end_of_input_pulsador_bajar:	
  2730                           
  2731                           	psect	text9
  2732  0288                     __ptext9:	
  2733 ;; *************** function _proceso_run *****************
  2734 ;; Defined at:
  2735 ;;		line 185 in file "main.c"
  2736 ;; Parameters:    Size  Location     Type
  2737 ;;		None
  2738 ;; Auto vars:     Size  Location     Type
  2739 ;;		None
  2740 ;; Return value:  Size  Location     Type
  2741 ;;                  1    wreg      void 
  2742 ;; Registers used:
  2743 ;;		wreg, fsr1l, fsr1h, status,2, status,0, pclath, cstack
  2744 ;; Tracked objects:
  2745 ;;		On entry : 0/0
  2746 ;;		On exit  : 0/0
  2747 ;;		Unchanged: 0/0
  2748 ;; Data sizes:     COMMON   BANK0   BANK1   BANK2
  2749 ;;      Params:         0       0       0       0
  2750 ;;      Locals:         0       0       0       0
  2751 ;;      Temps:          0       0       0       0
  2752 ;;      Totals:         0       0       0       0
  2753 ;;Total ram usage:        0 bytes
  2754 ;; Hardware stack levels used:    1
  2755 ;; Hardware stack levels required when called:    3
  2756 ;; This function calls:
  2757 ;;		___awdiv
  2758 ;;		___awmod
  2759 ;;		_max7219_points
  2760 ;;		_max7219_writeChar
  2761 ;;		_output_relay
  2762 ;;		_timer_0_disable
  2763 ;; This function is called by:
  2764 ;;		_main
  2765 ;; This function uses a non-reentrant model
  2766 ;;
  2767                           
  2768                           
  2769                           ;psect for function _proceso_run
  2770  0288                     _proceso_run:	
  2771  0288                     l2082:	
  2772                           ;incstack = 0
  2773                           ; Regs used in _proceso_run: [wreg+fsr1l+fsr1h+status,2+status,0+pclath+cstack]
  2774                           
  2775                           
  2776                           ;main.c: 186:     if (last_minutos_temp != minutos_temp) {
  2777  0288  0020               	movlb	0	; select bank0
  2778  0289  0835               	movf	_minutos_temp+1,w
  2779  028A  0631               	xorwf	_last_minutos_temp+1,w
  2780  028B  1D03               	skipz
  2781  028C  2A8F               	goto	u1685
  2782  028D  0834               	movf	_minutos_temp,w
  2783  028E  0630               	xorwf	_last_minutos_temp,w
  2784  028F                     u1685:	
  2785  028F  1903               	skipnz
  2786  0290  2A92               	goto	u1681
  2787  0291  2A93               	goto	u1680
  2788  0292                     u1681:	
  2789  0292  2AC6               	goto	l193
  2790  0293                     u1680:	
  2791  0293                     l2084:	
  2792                           
  2793                           ;main.c: 187:         last_minutos_temp = minutos_temp;
  2794  0293  0835               	movf	_minutos_temp+1,w
  2795  0294  00B1               	movwf	_last_minutos_temp+1
  2796  0295  0834               	movf	_minutos_temp,w
  2797  0296  00B0               	movwf	_last_minutos_temp
  2798  0297                     l2086:	
  2799                           
  2800                           ;main.c: 188:         max7219_writeChar(8, minutos_temp / 10);
  2801  0297  3008               	movlw	8
  2802  0298  00D9               	movwf	max7219_writeChar@pos
  2803  0299  3000               	movlw	0
  2804  029A  00DA               	movwf	max7219_writeChar@pos+1
  2805  029B  300A               	movlw	10
  2806  029C  00F1               	movwf	___awdiv@divisor
  2807  029D  3000               	movlw	0
  2808  029E  00F2               	movwf	___awdiv@divisor+1
  2809  029F  0835               	movf	_minutos_temp+1,w
  2810  02A0  00F4               	movwf	___awdiv@dividend+1
  2811  02A1  0834               	movf	_minutos_temp,w
  2812  02A2  00F3               	movwf	___awdiv@dividend
  2813  02A3  3187  278B  3182   	fcall	___awdiv
  2814  02A6  0872               	movf	?___awdiv+1,w
  2815  02A7  0020               	movlb	0	; select bank0
  2816  02A8  00DC               	movwf	max7219_writeChar@data+1
  2817  02A9  0871               	movf	?___awdiv,w
  2818  02AA  00DB               	movwf	max7219_writeChar@data
  2819  02AB  318F  27A6  3182   	fcall	_max7219_writeChar
  2820  02AE                     l2088:	
  2821                           
  2822                           ;main.c: 189:         max7219_writeChar(6, minutos_temp % 10);
  2823  02AE  3006               	movlw	6
  2824  02AF  0020               	movlb	0	; select bank0
  2825  02B0  00D9               	movwf	max7219_writeChar@pos
  2826  02B1  3000               	movlw	0
  2827  02B2  00DA               	movwf	max7219_writeChar@pos+1
  2828  02B3  300A               	movlw	10
  2829  02B4  00F1               	movwf	___awmod@divisor
  2830  02B5  3000               	movlw	0
  2831  02B6  00F2               	movwf	___awmod@divisor+1
  2832  02B7  0835               	movf	_minutos_temp+1,w
  2833  02B8  00F4               	movwf	___awmod@dividend+1
  2834  02B9  0834               	movf	_minutos_temp,w
  2835  02BA  00F3               	movwf	___awmod@dividend
  2836  02BB  318F  2753  3182   	fcall	___awmod
  2837  02BE  0872               	movf	?___awmod+1,w
  2838  02BF  0020               	movlb	0	; select bank0
  2839  02C0  00DC               	movwf	max7219_writeChar@data+1
  2840  02C1  0871               	movf	?___awmod,w
  2841  02C2  00DB               	movwf	max7219_writeChar@data
  2842  02C3  318F  27A6  3182   	fcall	_max7219_writeChar
  2843  02C6                     l193:	
  2844                           ;main.c: 190:     }
  2845                           
  2846                           
  2847                           ;main.c: 191:     if (last_segundos_temp != segundos_temp) {
  2848  02C6  0020               	movlb	0	; select bank0
  2849  02C7  0833               	movf	_segundos_temp+1,w
  2850  02C8  062F               	xorwf	_last_segundos_temp+1,w
  2851  02C9  1D03               	skipz
  2852  02CA  2ACD               	goto	u1695
  2853  02CB  0832               	movf	_segundos_temp,w
  2854  02CC  062E               	xorwf	_last_segundos_temp,w
  2855  02CD                     u1695:	
  2856  02CD  1903               	skipnz
  2857  02CE  2AD0               	goto	u1691
  2858  02CF  2AD1               	goto	u1690
  2859  02D0                     u1691:	
  2860  02D0  2B25               	goto	l2102
  2861  02D1                     u1690:	
  2862  02D1                     l2090:	
  2863                           
  2864                           ;main.c: 192:         if (flag_segundos) {
  2865  02D1  082A               	movf	_flag_segundos,w
  2866  02D2  042B               	iorwf	_flag_segundos+1,w
  2867  02D3  1903               	btfsc	3,2
  2868  02D4  2AD6               	goto	u1701
  2869  02D5  2AD7               	goto	u1700
  2870  02D6                     u1701:	
  2871  02D6  2AE4               	goto	l2096
  2872  02D7                     u1700:	
  2873  02D7                     l2092:	
  2874                           
  2875                           ;main.c: 193:             flag_segundos = 0;
  2876  02D7  01AA               	clrf	_flag_segundos
  2877  02D8  01AB               	clrf	_flag_segundos+1
  2878  02D9                     l2094:	
  2879                           
  2880                           ;main.c: 194:             max7219_points(0x01, 0x00);
  2881  02D9  3001               	movlw	1
  2882  02DA  00F1               	movwf	max7219_points@points
  2883  02DB  3000               	movlw	0
  2884  02DC  00F2               	movwf	max7219_points@points+1
  2885  02DD  3000               	movlw	0
  2886  02DE  00F3               	movwf	max7219_points@nivel
  2887  02DF  00F4               	movwf	max7219_points@nivel+1
  2888  02E0  3187  271F  3182   	fcall	_max7219_points
  2889                           
  2890                           ;main.c: 195:         } else {
  2891  02E3  2AF1               	goto	l2100
  2892  02E4                     l2096:	
  2893                           
  2894                           ;main.c: 196:             flag_segundos = 1;
  2895  02E4  3001               	movlw	1
  2896  02E5  00AA               	movwf	_flag_segundos
  2897  02E6  3000               	movlw	0
  2898  02E7  00AB               	movwf	_flag_segundos+1
  2899  02E8                     l2098:	
  2900                           
  2901                           ;main.c: 197:             max7219_points(0x00, 0x00);
  2902  02E8  3000               	movlw	0
  2903  02E9  00F1               	movwf	max7219_points@points
  2904  02EA  00F2               	movwf	max7219_points@points+1
  2905  02EB  3000               	movlw	0
  2906  02EC  00F3               	movwf	max7219_points@nivel
  2907  02ED  00F4               	movwf	max7219_points@nivel+1
  2908  02EE  3187  271F  3182   	fcall	_max7219_points
  2909  02F1                     l2100:	
  2910                           
  2911                           ;main.c: 199:         last_segundos_temp = segundos_temp;
  2912  02F1  0020               	movlb	0	; select bank0
  2913  02F2  0833               	movf	_segundos_temp+1,w
  2914  02F3  00AF               	movwf	_last_segundos_temp+1
  2915  02F4  0832               	movf	_segundos_temp,w
  2916  02F5  00AE               	movwf	_last_segundos_temp
  2917                           
  2918                           ;main.c: 200:         max7219_writeChar(2, segundos_temp / 10);
  2919  02F6  3002               	movlw	2
  2920  02F7  00D9               	movwf	max7219_writeChar@pos
  2921  02F8  3000               	movlw	0
  2922  02F9  00DA               	movwf	max7219_writeChar@pos+1
  2923  02FA  300A               	movlw	10
  2924  02FB  00F1               	movwf	___awdiv@divisor
  2925  02FC  3000               	movlw	0
  2926  02FD  00F2               	movwf	___awdiv@divisor+1
  2927  02FE  0833               	movf	_segundos_temp+1,w
  2928  02FF  00F4               	movwf	___awdiv@dividend+1
  2929  0300  0832               	movf	_segundos_temp,w
  2930  0301  00F3               	movwf	___awdiv@dividend
  2931  0302  3187  278B  3182   	fcall	___awdiv
  2932  0305  0872               	movf	?___awdiv+1,w
  2933  0306  0020               	movlb	0	; select bank0
  2934  0307  00DC               	movwf	max7219_writeChar@data+1
  2935  0308  0871               	movf	?___awdiv,w
  2936  0309  00DB               	movwf	max7219_writeChar@data
  2937  030A  318F  27A6  3182   	fcall	_max7219_writeChar
  2938                           
  2939                           ;main.c: 201:         max7219_writeChar(4, segundos_temp % 10);
  2940  030D  3004               	movlw	4
  2941  030E  0020               	movlb	0	; select bank0
  2942  030F  00D9               	movwf	max7219_writeChar@pos
  2943  0310  3000               	movlw	0
  2944  0311  00DA               	movwf	max7219_writeChar@pos+1
  2945  0312  300A               	movlw	10
  2946  0313  00F1               	movwf	___awmod@divisor
  2947  0314  3000               	movlw	0
  2948  0315  00F2               	movwf	___awmod@divisor+1
  2949  0316  0833               	movf	_segundos_temp+1,w
  2950  0317  00F4               	movwf	___awmod@dividend+1
  2951  0318  0832               	movf	_segundos_temp,w
  2952  0319  00F3               	movwf	___awmod@dividend
  2953  031A  318F  2753  3182   	fcall	___awmod
  2954  031D  0872               	movf	?___awmod+1,w
  2955  031E  0020               	movlb	0	; select bank0
  2956  031F  00DC               	movwf	max7219_writeChar@data+1
  2957  0320  0871               	movf	?___awmod,w
  2958  0321  00DB               	movwf	max7219_writeChar@data
  2959  0322  318F  27A6  3182   	fcall	_max7219_writeChar
  2960  0325                     l2102:	
  2961                           
  2962                           ;main.c: 204:     if (minutos_set == minutos_temp && segundos_set == segundos_temp) {
  2963  0325  0020               	movlb	0	; select bank0
  2964  0326  0835               	movf	_minutos_temp+1,w
  2965  0327  0639               	xorwf	_minutos_set+1,w
  2966  0328  1D03               	skipz
  2967  0329  2B2C               	goto	u1715
  2968  032A  0834               	movf	_minutos_temp,w
  2969  032B  0638               	xorwf	_minutos_set,w
  2970  032C                     u1715:	
  2971  032C  1D03               	skipz
  2972  032D  2B2F               	goto	u1711
  2973  032E  2B30               	goto	u1710
  2974  032F                     u1711:	
  2975  032F  2C3A               	goto	l200
  2976  0330                     u1710:	
  2977  0330                     l2104:	
  2978  0330  0833               	movf	_segundos_temp+1,w
  2979  0331  0637               	xorwf	_segundos_set+1,w
  2980  0332  1D03               	skipz
  2981  0333  2B36               	goto	u1725
  2982  0334  0832               	movf	_segundos_temp,w
  2983  0335  0636               	xorwf	_segundos_set,w
  2984  0336                     u1725:	
  2985  0336  1D03               	skipz
  2986  0337  2B39               	goto	u1721
  2987  0338  2B3A               	goto	u1720
  2988  0339                     u1721:	
  2989  0339  2C3A               	goto	l200
  2990  033A                     u1720:	
  2991  033A                     l2106:	
  2992                           
  2993                           ;main.c: 205:         max7219_points(0x01, 0x00);
  2994  033A  3001               	movlw	1
  2995  033B  00F1               	movwf	max7219_points@points
  2996  033C  3000               	movlw	0
  2997  033D  00F2               	movwf	max7219_points@points+1
  2998  033E  3000               	movlw	0
  2999  033F  00F3               	movwf	max7219_points@nivel
  3000  0340  00F4               	movwf	max7219_points@nivel+1
  3001  0341  3187  271F  3182   	fcall	_max7219_points
  3002                           
  3003                           ;main.c: 206:         max7219_writeChar(8, minutos_temp / 10);
  3004  0344  3008               	movlw	8
  3005  0345  0020               	movlb	0	; select bank0
  3006  0346  00D9               	movwf	max7219_writeChar@pos
  3007  0347  3000               	movlw	0
  3008  0348  00DA               	movwf	max7219_writeChar@pos+1
  3009  0349  300A               	movlw	10
  3010  034A  00F1               	movwf	___awdiv@divisor
  3011  034B  3000               	movlw	0
  3012  034C  00F2               	movwf	___awdiv@divisor+1
  3013  034D  0835               	movf	_minutos_temp+1,w
  3014  034E  00F4               	movwf	___awdiv@dividend+1
  3015  034F  0834               	movf	_minutos_temp,w
  3016  0350  00F3               	movwf	___awdiv@dividend
  3017  0351  3187  278B  3182   	fcall	___awdiv
  3018  0354  0872               	movf	?___awdiv+1,w
  3019  0355  0020               	movlb	0	; select bank0
  3020  0356  00DC               	movwf	max7219_writeChar@data+1
  3021  0357  0871               	movf	?___awdiv,w
  3022  0358  00DB               	movwf	max7219_writeChar@data
  3023  0359  318F  27A6  3182   	fcall	_max7219_writeChar
  3024                           
  3025                           ;main.c: 207:         max7219_writeChar(6, minutos_temp % 10);
  3026  035C  3006               	movlw	6
  3027  035D  0020               	movlb	0	; select bank0
  3028  035E  00D9               	movwf	max7219_writeChar@pos
  3029  035F  3000               	movlw	0
  3030  0360  00DA               	movwf	max7219_writeChar@pos+1
  3031  0361  300A               	movlw	10
  3032  0362  00F1               	movwf	___awmod@divisor
  3033  0363  3000               	movlw	0
  3034  0364  00F2               	movwf	___awmod@divisor+1
  3035  0365  0835               	movf	_minutos_temp+1,w
  3036  0366  00F4               	movwf	___awmod@dividend+1
  3037  0367  0834               	movf	_minutos_temp,w
  3038  0368  00F3               	movwf	___awmod@dividend
  3039  0369  318F  2753  3182   	fcall	___awmod
  3040  036C  0872               	movf	?___awmod+1,w
  3041  036D  0020               	movlb	0	; select bank0
  3042  036E  00DC               	movwf	max7219_writeChar@data+1
  3043  036F  0871               	movf	?___awmod,w
  3044  0370  00DB               	movwf	max7219_writeChar@data
  3045  0371  318F  27A6  3182   	fcall	_max7219_writeChar
  3046                           
  3047                           ;main.c: 208:         max7219_writeChar(2, segundos_temp / 10);
  3048  0374  3002               	movlw	2
  3049  0375  0020               	movlb	0	; select bank0
  3050  0376  00D9               	movwf	max7219_writeChar@pos
  3051  0377  3000               	movlw	0
  3052  0378  00DA               	movwf	max7219_writeChar@pos+1
  3053  0379  300A               	movlw	10
  3054  037A  00F1               	movwf	___awdiv@divisor
  3055  037B  3000               	movlw	0
  3056  037C  00F2               	movwf	___awdiv@divisor+1
  3057  037D  0833               	movf	_segundos_temp+1,w
  3058  037E  00F4               	movwf	___awdiv@dividend+1
  3059  037F  0832               	movf	_segundos_temp,w
  3060  0380  00F3               	movwf	___awdiv@dividend
  3061  0381  3187  278B  3182   	fcall	___awdiv
  3062  0384  0872               	movf	?___awdiv+1,w
  3063  0385  0020               	movlb	0	; select bank0
  3064  0386  00DC               	movwf	max7219_writeChar@data+1
  3065  0387  0871               	movf	?___awdiv,w
  3066  0388  00DB               	movwf	max7219_writeChar@data
  3067  0389  318F  27A6  3182   	fcall	_max7219_writeChar
  3068                           
  3069                           ;main.c: 209:         max7219_writeChar(4, segundos_temp % 10);
  3070  038C  3004               	movlw	4
  3071  038D  0020               	movlb	0	; select bank0
  3072  038E  00D9               	movwf	max7219_writeChar@pos
  3073  038F  3000               	movlw	0
  3074  0390  00DA               	movwf	max7219_writeChar@pos+1
  3075  0391  300A               	movlw	10
  3076  0392  00F1               	movwf	___awmod@divisor
  3077  0393  3000               	movlw	0
  3078  0394  00F2               	movwf	___awmod@divisor+1
  3079  0395  0833               	movf	_segundos_temp+1,w
  3080  0396  00F4               	movwf	___awmod@dividend+1
  3081  0397  0832               	movf	_segundos_temp,w
  3082  0398  00F3               	movwf	___awmod@dividend
  3083  0399  318F  2753  3182   	fcall	___awmod
  3084  039C  0872               	movf	?___awmod+1,w
  3085  039D  0020               	movlb	0	; select bank0
  3086  039E  00DC               	movwf	max7219_writeChar@data+1
  3087  039F  0871               	movf	?___awmod,w
  3088  03A0  00DB               	movwf	max7219_writeChar@data
  3089  03A1  318F  27A6  3182   	fcall	_max7219_writeChar
  3090  03A4                     l2108:	
  3091                           
  3092                           ;main.c: 210:         timer_0_disable();
  3093  03A4  318D  2522  3182   	fcall	_timer_0_disable
  3094  03A7                     l2110:	
  3095                           
  3096                           ;main.c: 211:         output_relay(1);
  3097  03A7  3001               	movlw	1
  3098  03A8  00F1               	movwf	output_relay@d
  3099  03A9  3000               	movlw	0
  3100  03AA  00F2               	movwf	output_relay@d+1
  3101  03AB  318D  2534  3182   	fcall	_output_relay
  3102  03AE                     l2112:	
  3103                           
  3104                           ;main.c: 212:         for (k = 0; k < 4000000; k++);
  3105  03AE  3000               	movlw	0
  3106  03AF  0020               	movlb	0	; select bank0
  3107  03B0  00A3               	movwf	_k+3
  3108  03B1  3000               	movlw	0
  3109  03B2  00A2               	movwf	_k+2
  3110  03B3  3000               	movlw	0
  3111  03B4  00A1               	movwf	_k+1
  3112  03B5  3000               	movlw	0
  3113  03B6  00A0               	movwf	_k
  3114  03B7                     l2114:	
  3115  03B7  1BA3               	btfsc	_k+3,7
  3116  03B8  2BC3               	goto	u1731
  3117  03B9  0823               	movf	_k+3,w
  3118  03BA  1D03               	btfss	3,2
  3119  03BB  2BC4               	goto	u1730
  3120  03BC  3009               	movlw	9
  3121  03BD  0221               	subwf	_k+1,w
  3122  03BE  303D               	movlw	61
  3123  03BF  3B22               	subwfb	_k+2,w
  3124  03C0  1C03               	btfss	3,0
  3125  03C1  2BC3               	goto	u1731
  3126  03C2  2BC4               	goto	u1730
  3127  03C3                     u1731:	
  3128  03C3  2BC5               	goto	l2118
  3129  03C4                     u1730:	
  3130  03C4  2BCE               	goto	l2122
  3131  03C5                     l2118:	
  3132  03C5  3001               	movlw	1
  3133  03C6  07A0               	addwf	_k,f
  3134  03C7  3000               	movlw	0
  3135  03C8  3DA1               	addwfc	_k+1,f
  3136  03C9  3000               	movlw	0
  3137  03CA  3DA2               	addwfc	_k+2,f
  3138  03CB  3000               	movlw	0
  3139  03CC  3DA3               	addwfc	_k+3,f
  3140  03CD  2BB7               	goto	l2114
  3141  03CE                     l2122:	
  3142                           
  3143                           ;main.c: 213:         output_relay(0);
  3144  03CE  3000               	movlw	0
  3145  03CF  00F1               	movwf	output_relay@d
  3146  03D0  00F2               	movwf	output_relay@d+1
  3147  03D1  318D  2534  3182   	fcall	_output_relay
  3148  03D4                     l2124:	
  3149                           
  3150                           ;main.c: 214:         proceso = 0;
  3151  03D4  0020               	movlb	0	; select bank0
  3152  03D5  01AC               	clrf	_proceso
  3153  03D6  01AD               	clrf	_proceso+1
  3154  03D7                     l2126:	
  3155                           
  3156                           ;main.c: 215:         minutos_temp = 0;
  3157  03D7  01B4               	clrf	_minutos_temp
  3158  03D8  01B5               	clrf	_minutos_temp+1
  3159  03D9                     l2128:	
  3160                           
  3161                           ;main.c: 216:         segundos_temp = 0;
  3162  03D9  01B2               	clrf	_segundos_temp
  3163  03DA  01B3               	clrf	_segundos_temp+1
  3164  03DB                     l2130:	
  3165                           
  3166                           ;main.c: 217:         max7219_writeChar(8, minutos_temp / 10);
  3167  03DB  3008               	movlw	8
  3168  03DC  00D9               	movwf	max7219_writeChar@pos
  3169  03DD  3000               	movlw	0
  3170  03DE  00DA               	movwf	max7219_writeChar@pos+1
  3171  03DF  300A               	movlw	10
  3172  03E0  00F1               	movwf	___awdiv@divisor
  3173  03E1  3000               	movlw	0
  3174  03E2  00F2               	movwf	___awdiv@divisor+1
  3175  03E3  0835               	movf	_minutos_temp+1,w
  3176  03E4  00F4               	movwf	___awdiv@dividend+1
  3177  03E5  0834               	movf	_minutos_temp,w
  3178  03E6  00F3               	movwf	___awdiv@dividend
  3179  03E7  3187  278B  3182   	fcall	___awdiv
  3180  03EA  0872               	movf	?___awdiv+1,w
  3181  03EB  0020               	movlb	0	; select bank0
  3182  03EC  00DC               	movwf	max7219_writeChar@data+1
  3183  03ED  0871               	movf	?___awdiv,w
  3184  03EE  00DB               	movwf	max7219_writeChar@data
  3185  03EF  318F  27A6  3182   	fcall	_max7219_writeChar
  3186  03F2                     l2132:	
  3187                           
  3188                           ;main.c: 218:         max7219_writeChar(6, minutos_temp % 10);
  3189  03F2  3006               	movlw	6
  3190  03F3  0020               	movlb	0	; select bank0
  3191  03F4  00D9               	movwf	max7219_writeChar@pos
  3192  03F5  3000               	movlw	0
  3193  03F6  00DA               	movwf	max7219_writeChar@pos+1
  3194  03F7  300A               	movlw	10
  3195  03F8  00F1               	movwf	___awmod@divisor
  3196  03F9  3000               	movlw	0
  3197  03FA  00F2               	movwf	___awmod@divisor+1
  3198  03FB  0835               	movf	_minutos_temp+1,w
  3199  03FC  00F4               	movwf	___awmod@dividend+1
  3200  03FD  0834               	movf	_minutos_temp,w
  3201  03FE  00F3               	movwf	___awmod@dividend
  3202  03FF  318F  2753  3182   	fcall	___awmod
  3203  0402  0872               	movf	?___awmod+1,w
  3204  0403  0020               	movlb	0	; select bank0
  3205  0404  00DC               	movwf	max7219_writeChar@data+1
  3206  0405  0871               	movf	?___awmod,w
  3207  0406  00DB               	movwf	max7219_writeChar@data
  3208  0407  318F  27A6  3182   	fcall	_max7219_writeChar
  3209  040A                     l2134:	
  3210                           
  3211                           ;main.c: 219:         max7219_writeChar(2, segundos_temp / 10);
  3212  040A  3002               	movlw	2
  3213  040B  0020               	movlb	0	; select bank0
  3214  040C  00D9               	movwf	max7219_writeChar@pos
  3215  040D  3000               	movlw	0
  3216  040E  00DA               	movwf	max7219_writeChar@pos+1
  3217  040F  300A               	movlw	10
  3218  0410  00F1               	movwf	___awdiv@divisor
  3219  0411  3000               	movlw	0
  3220  0412  00F2               	movwf	___awdiv@divisor+1
  3221  0413  0833               	movf	_segundos_temp+1,w
  3222  0414  00F4               	movwf	___awdiv@dividend+1
  3223  0415  0832               	movf	_segundos_temp,w
  3224  0416  00F3               	movwf	___awdiv@dividend
  3225  0417  3187  278B  3182   	fcall	___awdiv
  3226  041A  0872               	movf	?___awdiv+1,w
  3227  041B  0020               	movlb	0	; select bank0
  3228  041C  00DC               	movwf	max7219_writeChar@data+1
  3229  041D  0871               	movf	?___awdiv,w
  3230  041E  00DB               	movwf	max7219_writeChar@data
  3231  041F  318F  27A6  3182   	fcall	_max7219_writeChar
  3232  0422                     l2136:	
  3233                           
  3234                           ;main.c: 220:         max7219_writeChar(4, segundos_temp % 10);
  3235  0422  3004               	movlw	4
  3236  0423  0020               	movlb	0	; select bank0
  3237  0424  00D9               	movwf	max7219_writeChar@pos
  3238  0425  3000               	movlw	0
  3239  0426  00DA               	movwf	max7219_writeChar@pos+1
  3240  0427  300A               	movlw	10
  3241  0428  00F1               	movwf	___awmod@divisor
  3242  0429  3000               	movlw	0
  3243  042A  00F2               	movwf	___awmod@divisor+1
  3244  042B  0833               	movf	_segundos_temp+1,w
  3245  042C  00F4               	movwf	___awmod@dividend+1
  3246  042D  0832               	movf	_segundos_temp,w
  3247  042E  00F3               	movwf	___awmod@dividend
  3248  042F  318F  2753  3182   	fcall	___awmod
  3249  0432  0872               	movf	?___awmod+1,w
  3250  0433  0020               	movlb	0	; select bank0
  3251  0434  00DC               	movwf	max7219_writeChar@data+1
  3252  0435  0871               	movf	?___awmod,w
  3253  0436  00DB               	movwf	max7219_writeChar@data
  3254  0437  318F  27A6  3182   	fcall	_max7219_writeChar
  3255  043A                     l200:	
  3256  043A  0008               	return
  3257  043B                     __end_of_proceso_run:	
  3258                           
  3259                           	psect	text10
  3260  0D22                     __ptext10:	
  3261 ;; *************** function _timer_0_disable *****************
  3262 ;; Defined at:
  3263 ;;		line 85 in file "main.c"
  3264 ;; Parameters:    Size  Location     Type
  3265 ;;		None
  3266 ;; Auto vars:     Size  Location     Type
  3267 ;;		None
  3268 ;; Return value:  Size  Location     Type
  3269 ;;                  1    wreg      void 
  3270 ;; Registers used:
  3271 ;;		status,2
  3272 ;; Tracked objects:
  3273 ;;		On entry : 0/0
  3274 ;;		On exit  : 0/0
  3275 ;;		Unchanged: 0/0
  3276 ;; Data sizes:     COMMON   BANK0   BANK1   BANK2
  3277 ;;      Params:         0       0       0       0
  3278 ;;      Locals:         0       0       0       0
  3279 ;;      Temps:          0       0       0       0
  3280 ;;      Totals:         0       0       0       0
  3281 ;;Total ram usage:        0 bytes
  3282 ;; Hardware stack levels used:    1
  3283 ;; Hardware stack levels required when called:    1
  3284 ;; This function calls:
  3285 ;;		Nothing
  3286 ;; This function is called by:
  3287 ;;		_proceso_run
  3288 ;; This function uses a non-reentrant model
  3289 ;;
  3290                           
  3291                           
  3292                           ;psect for function _timer_0_disable
  3293  0D22                     _timer_0_disable:	
  3294  0D22                     l1706:	
  3295                           ;incstack = 0
  3296                           ; Regs used in _timer_0_disable: [status,2]
  3297                           
  3298                           
  3299                           ;main.c: 86:     TMR0 = 0;
  3300  0D22  0020               	movlb	0	; select bank0
  3301  0D23  0195               	clrf	21	;volatile
  3302  0D24                     l1708:	
  3303                           
  3304                           ;main.c: 87:     INTCONbits.TMR0IF = 0;
  3305  0D24  110B               	bcf	11,2	;volatile
  3306  0D25                     l1710:	
  3307                           
  3308                           ;main.c: 88:     INTCONbits.TMR0IE = 0;
  3309  0D25  128B               	bcf	11,5	;volatile
  3310  0D26                     l1712:	
  3311                           
  3312                           ;main.c: 89:     INTCONbits.GIE = 0;
  3313  0D26  138B               	bcf	11,7	;volatile
  3314  0D27                     l161:	
  3315  0D27  0008               	return
  3316  0D28                     __end_of_timer_0_disable:	
  3317                           
  3318                           	psect	text11
  3319  059F                     __ptext11:	
  3320 ;; *************** function _proceso_detenido *****************
  3321 ;; Defined at:
  3322 ;;		line 224 in file "main.c"
  3323 ;; Parameters:    Size  Location     Type
  3324 ;;		None
  3325 ;; Auto vars:     Size  Location     Type
  3326 ;;		None
  3327 ;; Return value:  Size  Location     Type
  3328 ;;                  1    wreg      void 
  3329 ;; Registers used:
  3330 ;;		wreg, fsr1l, fsr1h, status,2, status,0, pclath, cstack
  3331 ;; Tracked objects:
  3332 ;;		On entry : 0/0
  3333 ;;		On exit  : 0/0
  3334 ;;		Unchanged: 0/0
  3335 ;; Data sizes:     COMMON   BANK0   BANK1   BANK2
  3336 ;;      Params:         0       0       0       0
  3337 ;;      Locals:         0       0       0       0
  3338 ;;      Temps:          0       1       0       0
  3339 ;;      Totals:         0       1       0       0
  3340 ;;Total ram usage:        1 bytes
  3341 ;; Hardware stack levels used:    1
  3342 ;; Hardware stack levels required when called:    3
  3343 ;; This function calls:
  3344 ;;		___awdiv
  3345 ;;		___awmod
  3346 ;;		_eeprom_write
  3347 ;;		_input_pulsador_ok
  3348 ;;		_max7219_points
  3349 ;;		_max7219_writeChar
  3350 ;;		_output_relay
  3351 ;;		_timer_0_enable
  3352 ;; This function is called by:
  3353 ;;		_main
  3354 ;; This function uses a non-reentrant model
  3355 ;;
  3356                           
  3357                           
  3358                           ;psect for function _proceso_detenido
  3359  059F                     _proceso_detenido:	
  3360  059F                     l2138:	
  3361                           ;incstack = 0
  3362                           ; Regs used in _proceso_detenido: [wreg+fsr1l+fsr1h+status,2+status,0+pclath+cstack]
  3363                           
  3364                           
  3365                           ;main.c: 225:     if (input_pulsador_ok()) {
  3366  059F  318D  2588  3185   	fcall	_input_pulsador_ok
  3367  05A2  0871               	movf	?_input_pulsador_ok,w
  3368  05A3  0472               	iorwf	?_input_pulsador_ok+1,w
  3369  05A4  1903               	btfsc	3,2
  3370  05A5  2DA7               	goto	u1741
  3371  05A6  2DA8               	goto	u1740
  3372  05A7                     u1741:	
  3373  05A7  2E91               	goto	l209
  3374  05A8                     u1740:	
  3375  05A8                     l2140:	
  3376                           
  3377                           ;main.c: 226:         eeprom_write(0, minutos_set);
  3378  05A8  0020               	movlb	0	; select bank0
  3379  05A9  0838               	movf	_minutos_set,w
  3380  05AA  00DF               	movwf	??_proceso_detenido
  3381  05AB  085F               	movf	??_proceso_detenido,w
  3382  05AC  00F1               	movwf	eeprom_write@value
  3383  05AD  3000               	movlw	0
  3384  05AE  318D  25FA  3185   	fcall	_eeprom_write
  3385                           
  3386                           ;main.c: 227:         eeprom_write(1, segundos_set);
  3387  05B1  0020               	movlb	0	; select bank0
  3388  05B2  0836               	movf	_segundos_set,w
  3389  05B3  00DF               	movwf	??_proceso_detenido
  3390  05B4  085F               	movf	??_proceso_detenido,w
  3391  05B5  00F1               	movwf	eeprom_write@value
  3392  05B6  3001               	movlw	1
  3393  05B7  318D  25FA  3185   	fcall	_eeprom_write
  3394  05BA                     l2142:	
  3395                           
  3396                           ;main.c: 228:         minutos_temp = 0;
  3397  05BA  0020               	movlb	0	; select bank0
  3398  05BB  01B4               	clrf	_minutos_temp
  3399  05BC  01B5               	clrf	_minutos_temp+1
  3400  05BD                     l2144:	
  3401                           
  3402                           ;main.c: 229:         segundos_temp = 0;
  3403  05BD  01B2               	clrf	_segundos_temp
  3404  05BE  01B3               	clrf	_segundos_temp+1
  3405                           
  3406                           ;main.c: 230:         output_relay(1);
  3407  05BF  3001               	movlw	1
  3408  05C0  00F1               	movwf	output_relay@d
  3409  05C1  3000               	movlw	0
  3410  05C2  00F2               	movwf	output_relay@d+1
  3411  05C3  318D  2534  3185   	fcall	_output_relay
  3412  05C6                     l2146:	
  3413                           
  3414                           ;main.c: 231:         for (k = 0; k < 100000; k++);
  3415  05C6  3000               	movlw	0
  3416  05C7  0020               	movlb	0	; select bank0
  3417  05C8  00A3               	movwf	_k+3
  3418  05C9  3000               	movlw	0
  3419  05CA  00A2               	movwf	_k+2
  3420  05CB  3000               	movlw	0
  3421  05CC  00A1               	movwf	_k+1
  3422  05CD  3000               	movlw	0
  3423  05CE  00A0               	movwf	_k
  3424  05CF                     l2148:	
  3425  05CF  1BA3               	btfsc	_k+3,7
  3426  05D0  2DDD               	goto	u1751
  3427  05D1  0823               	movf	_k+3,w
  3428  05D2  1D03               	btfss	3,2
  3429  05D3  2DDE               	goto	u1750
  3430  05D4  30A0               	movlw	160
  3431  05D5  0220               	subwf	_k,w
  3432  05D6  3086               	movlw	134
  3433  05D7  3B21               	subwfb	_k+1,w
  3434  05D8  3001               	movlw	1
  3435  05D9  3B22               	subwfb	_k+2,w
  3436  05DA  1C03               	btfss	3,0
  3437  05DB  2DDD               	goto	u1751
  3438  05DC  2DDE               	goto	u1750
  3439  05DD                     u1751:	
  3440  05DD  2DDF               	goto	l2152
  3441  05DE                     u1750:	
  3442  05DE  2DE8               	goto	l2156
  3443  05DF                     l2152:	
  3444  05DF  3001               	movlw	1
  3445  05E0  07A0               	addwf	_k,f
  3446  05E1  3000               	movlw	0
  3447  05E2  3DA1               	addwfc	_k+1,f
  3448  05E3  3000               	movlw	0
  3449  05E4  3DA2               	addwfc	_k+2,f
  3450  05E5  3000               	movlw	0
  3451  05E6  3DA3               	addwfc	_k+3,f
  3452  05E7  2DCF               	goto	l2148
  3453  05E8                     l2156:	
  3454                           
  3455                           ;main.c: 232:         output_relay(0);
  3456  05E8  3000               	movlw	0
  3457  05E9  00F1               	movwf	output_relay@d
  3458  05EA  00F2               	movwf	output_relay@d+1
  3459  05EB  318D  2534  3185   	fcall	_output_relay
  3460  05EE                     l2158:	
  3461                           
  3462                           ;main.c: 233:         if (segundos_set > 2 || minutos_set > 0) {
  3463  05EE  0020               	movlb	0	; select bank0
  3464  05EF  0837               	movf	_segundos_set+1,w
  3465  05F0  3A80               	xorlw	128
  3466  05F1  00DF               	movwf	??_proceso_detenido
  3467  05F2  3080               	movlw	128
  3468  05F3  025F               	subwf	??_proceso_detenido,w
  3469  05F4  1D03               	skipz
  3470  05F5  2DF8               	goto	u1765
  3471  05F6  3003               	movlw	3
  3472  05F7  0236               	subwf	_segundos_set,w
  3473  05F8                     u1765:	
  3474  05F8  1803               	skipnc
  3475  05F9  2DFB               	goto	u1761
  3476  05FA  2DFC               	goto	u1760
  3477  05FB                     u1761:	
  3478  05FB  2E0A               	goto	l2162
  3479  05FC                     u1760:	
  3480  05FC                     l2160:	
  3481  05FC  0020               	movlb	0	; select bank0
  3482  05FD  0839               	movf	_minutos_set+1,w
  3483  05FE  3A80               	xorlw	128
  3484  05FF  00DF               	movwf	??_proceso_detenido
  3485  0600  3080               	movlw	128
  3486  0601  025F               	subwf	??_proceso_detenido,w
  3487  0602  1D03               	skipz
  3488  0603  2E06               	goto	u1775
  3489  0604  3001               	movlw	1
  3490  0605  0238               	subwf	_minutos_set,w
  3491  0606                     u1775:	
  3492  0606  1C03               	skipc
  3493  0607  2E09               	goto	u1771
  3494  0608  2E0A               	goto	u1770
  3495  0609                     u1771:	
  3496  0609  2E91               	goto	l209
  3497  060A                     u1770:	
  3498  060A                     l2162:	
  3499                           
  3500                           ;main.c: 234:             timer_0_enable();
  3501  060A  318D  251C  3185   	fcall	_timer_0_enable
  3502  060D                     l2164:	
  3503                           
  3504                           ;main.c: 235:             proceso = 1;
  3505  060D  3001               	movlw	1
  3506  060E  0020               	movlb	0	; select bank0
  3507  060F  00AC               	movwf	_proceso
  3508  0610  3000               	movlw	0
  3509  0611  00AD               	movwf	_proceso+1
  3510  0612                     l2166:	
  3511                           
  3512                           ;main.c: 236:             veces_uso++;
  3513  0612  3001               	movlw	1
  3514  0613  07A8               	addwf	_veces_uso,f
  3515  0614  3000               	movlw	0
  3516  0615  3DA9               	addwfc	_veces_uso+1,f
  3517  0616                     l2168:	
  3518                           
  3519                           ;main.c: 237:             eeprom_write(4, veces_uso >> 8);
  3520  0616  0829               	movf	_veces_uso+1,w
  3521  0617  00DF               	movwf	??_proceso_detenido
  3522  0618  085F               	movf	??_proceso_detenido,w
  3523  0619  00F1               	movwf	eeprom_write@value
  3524  061A  3004               	movlw	4
  3525  061B  318D  25FA  3185   	fcall	_eeprom_write
  3526  061E                     l2170:	
  3527                           
  3528                           ;main.c: 238:             eeprom_write(5, veces_uso);
  3529  061E  0020               	movlb	0	; select bank0
  3530  061F  0828               	movf	_veces_uso,w
  3531  0620  00DF               	movwf	??_proceso_detenido
  3532  0621  085F               	movf	??_proceso_detenido,w
  3533  0622  00F1               	movwf	eeprom_write@value
  3534  0623  3005               	movlw	5
  3535  0624  318D  25FA  3185   	fcall	_eeprom_write
  3536  0627                     l2172:	
  3537                           
  3538                           ;main.c: 239:             max7219_points(0x01, 0x00);
  3539  0627  3001               	movlw	1
  3540  0628  00F1               	movwf	max7219_points@points
  3541  0629  3000               	movlw	0
  3542  062A  00F2               	movwf	max7219_points@points+1
  3543  062B  3000               	movlw	0
  3544  062C  00F3               	movwf	max7219_points@nivel
  3545  062D  00F4               	movwf	max7219_points@nivel+1
  3546  062E  3187  271F  3185   	fcall	_max7219_points
  3547  0631                     l2174:	
  3548                           
  3549                           ;main.c: 240:             max7219_writeChar(8, minutos_temp / 10);
  3550  0631  3008               	movlw	8
  3551  0632  0020               	movlb	0	; select bank0
  3552  0633  00D9               	movwf	max7219_writeChar@pos
  3553  0634  3000               	movlw	0
  3554  0635  00DA               	movwf	max7219_writeChar@pos+1
  3555  0636  300A               	movlw	10
  3556  0637  00F1               	movwf	___awdiv@divisor
  3557  0638  3000               	movlw	0
  3558  0639  00F2               	movwf	___awdiv@divisor+1
  3559  063A  0835               	movf	_minutos_temp+1,w
  3560  063B  00F4               	movwf	___awdiv@dividend+1
  3561  063C  0834               	movf	_minutos_temp,w
  3562  063D  00F3               	movwf	___awdiv@dividend
  3563  063E  3187  278B  3185   	fcall	___awdiv
  3564  0641  0872               	movf	?___awdiv+1,w
  3565  0642  0020               	movlb	0	; select bank0
  3566  0643  00DC               	movwf	max7219_writeChar@data+1
  3567  0644  0871               	movf	?___awdiv,w
  3568  0645  00DB               	movwf	max7219_writeChar@data
  3569  0646  318F  27A6  3185   	fcall	_max7219_writeChar
  3570  0649                     l2176:	
  3571                           
  3572                           ;main.c: 241:             max7219_writeChar(6, minutos_temp % 10);
  3573  0649  3006               	movlw	6
  3574  064A  0020               	movlb	0	; select bank0
  3575  064B  00D9               	movwf	max7219_writeChar@pos
  3576  064C  3000               	movlw	0
  3577  064D  00DA               	movwf	max7219_writeChar@pos+1
  3578  064E  300A               	movlw	10
  3579  064F  00F1               	movwf	___awmod@divisor
  3580  0650  3000               	movlw	0
  3581  0651  00F2               	movwf	___awmod@divisor+1
  3582  0652  0835               	movf	_minutos_temp+1,w
  3583  0653  00F4               	movwf	___awmod@dividend+1
  3584  0654  0834               	movf	_minutos_temp,w
  3585  0655  00F3               	movwf	___awmod@dividend
  3586  0656  318F  2753  3185   	fcall	___awmod
  3587  0659  0872               	movf	?___awmod+1,w
  3588  065A  0020               	movlb	0	; select bank0
  3589  065B  00DC               	movwf	max7219_writeChar@data+1
  3590  065C  0871               	movf	?___awmod,w
  3591  065D  00DB               	movwf	max7219_writeChar@data
  3592  065E  318F  27A6  3185   	fcall	_max7219_writeChar
  3593  0661                     l2178:	
  3594                           
  3595                           ;main.c: 242:             max7219_writeChar(2, segundos_temp / 10);
  3596  0661  3002               	movlw	2
  3597  0662  0020               	movlb	0	; select bank0
  3598  0663  00D9               	movwf	max7219_writeChar@pos
  3599  0664  3000               	movlw	0
  3600  0665  00DA               	movwf	max7219_writeChar@pos+1
  3601  0666  300A               	movlw	10
  3602  0667  00F1               	movwf	___awdiv@divisor
  3603  0668  3000               	movlw	0
  3604  0669  00F2               	movwf	___awdiv@divisor+1
  3605  066A  0833               	movf	_segundos_temp+1,w
  3606  066B  00F4               	movwf	___awdiv@dividend+1
  3607  066C  0832               	movf	_segundos_temp,w
  3608  066D  00F3               	movwf	___awdiv@dividend
  3609  066E  3187  278B  3185   	fcall	___awdiv
  3610  0671  0872               	movf	?___awdiv+1,w
  3611  0672  0020               	movlb	0	; select bank0
  3612  0673  00DC               	movwf	max7219_writeChar@data+1
  3613  0674  0871               	movf	?___awdiv,w
  3614  0675  00DB               	movwf	max7219_writeChar@data
  3615  0676  318F  27A6  3185   	fcall	_max7219_writeChar
  3616  0679                     l2180:	
  3617                           
  3618                           ;main.c: 243:             max7219_writeChar(4, segundos_temp % 10);
  3619  0679  3004               	movlw	4
  3620  067A  0020               	movlb	0	; select bank0
  3621  067B  00D9               	movwf	max7219_writeChar@pos
  3622  067C  3000               	movlw	0
  3623  067D  00DA               	movwf	max7219_writeChar@pos+1
  3624  067E  300A               	movlw	10
  3625  067F  00F1               	movwf	___awmod@divisor
  3626  0680  3000               	movlw	0
  3627  0681  00F2               	movwf	___awmod@divisor+1
  3628  0682  0833               	movf	_segundos_temp+1,w
  3629  0683  00F4               	movwf	___awmod@dividend+1
  3630  0684  0832               	movf	_segundos_temp,w
  3631  0685  00F3               	movwf	___awmod@dividend
  3632  0686  318F  2753  3185   	fcall	___awmod
  3633  0689  0872               	movf	?___awmod+1,w
  3634  068A  0020               	movlb	0	; select bank0
  3635  068B  00DC               	movwf	max7219_writeChar@data+1
  3636  068C  0871               	movf	?___awmod,w
  3637  068D  00DB               	movwf	max7219_writeChar@data
  3638  068E  318F  27A6  3185   	fcall	_max7219_writeChar
  3639  0691                     l209:	
  3640  0691  0008               	return
  3641  0692                     __end_of_proceso_detenido:	
  3642                           
  3643                           	psect	text12
  3644  0D1C                     __ptext12:	
  3645 ;; *************** function _timer_0_enable *****************
  3646 ;; Defined at:
  3647 ;;		line 78 in file "main.c"
  3648 ;; Parameters:    Size  Location     Type
  3649 ;;		None
  3650 ;; Auto vars:     Size  Location     Type
  3651 ;;		None
  3652 ;; Return value:  Size  Location     Type
  3653 ;;                  1    wreg      void 
  3654 ;; Registers used:
  3655 ;;		status,2
  3656 ;; Tracked objects:
  3657 ;;		On entry : 0/0
  3658 ;;		On exit  : 0/0
  3659 ;;		Unchanged: 0/0
  3660 ;; Data sizes:     COMMON   BANK0   BANK1   BANK2
  3661 ;;      Params:         0       0       0       0
  3662 ;;      Locals:         0       0       0       0
  3663 ;;      Temps:          0       0       0       0
  3664 ;;      Totals:         0       0       0       0
  3665 ;;Total ram usage:        0 bytes
  3666 ;; Hardware stack levels used:    1
  3667 ;; Hardware stack levels required when called:    1
  3668 ;; This function calls:
  3669 ;;		Nothing
  3670 ;; This function is called by:
  3671 ;;		_proceso_detenido
  3672 ;; This function uses a non-reentrant model
  3673 ;;
  3674                           
  3675                           
  3676                           ;psect for function _timer_0_enable
  3677  0D1C                     _timer_0_enable:	
  3678  0D1C                     l1698:	
  3679                           ;incstack = 0
  3680                           ; Regs used in _timer_0_enable: [status,2]
  3681                           
  3682                           
  3683                           ;main.c: 79:     TMR0 = 0;
  3684  0D1C  0020               	movlb	0	; select bank0
  3685  0D1D  0195               	clrf	21	;volatile
  3686  0D1E                     l1700:	
  3687                           
  3688                           ;main.c: 80:     INTCONbits.TMR0IF = 0;
  3689  0D1E  110B               	bcf	11,2	;volatile
  3690  0D1F                     l1702:	
  3691                           
  3692                           ;main.c: 81:     INTCONbits.TMR0IE = 1;
  3693  0D1F  168B               	bsf	11,5	;volatile
  3694  0D20                     l1704:	
  3695                           
  3696                           ;main.c: 82:     INTCONbits.GIE = 1;
  3697  0D20  178B               	bsf	11,7	;volatile
  3698  0D21                     l158:	
  3699  0D21  0008               	return
  3700  0D22                     __end_of_timer_0_enable:	
  3701                           
  3702                           	psect	text13
  3703  0D88                     __ptext13:	
  3704 ;; *************** function _input_pulsador_ok *****************
  3705 ;; Defined at:
  3706 ;;		line 55 in file "./input.h"
  3707 ;; Parameters:    Size  Location     Type
  3708 ;;		None
  3709 ;; Auto vars:     Size  Location     Type
  3710 ;;		None
  3711 ;; Return value:  Size  Location     Type
  3712 ;;                  2    1[COMMON] unsigned int 
  3713 ;; Registers used:
  3714 ;;		wreg, status,2
  3715 ;; Tracked objects:
  3716 ;;		On entry : 0/0
  3717 ;;		On exit  : 0/0
  3718 ;;		Unchanged: 0/0
  3719 ;; Data sizes:     COMMON   BANK0   BANK1   BANK2
  3720 ;;      Params:         2       0       0       0
  3721 ;;      Locals:         0       0       0       0
  3722 ;;      Temps:          1       0       0       0
  3723 ;;      Totals:         3       0       0       0
  3724 ;;Total ram usage:        3 bytes
  3725 ;; Hardware stack levels used:    1
  3726 ;; Hardware stack levels required when called:    1
  3727 ;; This function calls:
  3728 ;;		Nothing
  3729 ;; This function is called by:
  3730 ;;		_proceso_detenido
  3731 ;; This function uses a non-reentrant model
  3732 ;;
  3733                           
  3734                           
  3735                           ;psect for function _input_pulsador_ok
  3736  0D88                     _input_pulsador_ok:	
  3737  0D88                     l1678:	
  3738                           ;incstack = 0
  3739                           ; Regs used in _input_pulsador_ok: [wreg+status,2]
  3740                           
  3741                           
  3742                           ;./input.h: 56:     static int contador = 0;;./input.h: 57:     if (PORTCbits.RC4) {
  3743  0D88  0020               	movlb	0	; select bank0
  3744  0D89  1E0E               	btfss	14,4	;volatile
  3745  0D8A  2D8C               	goto	u1141
  3746  0D8B  2D8D               	goto	u1140
  3747  0D8C                     u1141:	
  3748  0D8C  2DA6               	goto	l1688
  3749  0D8D                     u1140:	
  3750  0D8D                     l1680:	
  3751                           
  3752                           ;./input.h: 58:         if (++contador > 10000) {
  3753  0D8D  3001               	movlw	1
  3754  0D8E  07BA               	addwf	input_pulsador_ok@contador,f
  3755  0D8F  3000               	movlw	0
  3756  0D90  3DBB               	addwfc	input_pulsador_ok@contador+1,f
  3757  0D91  083B               	movf	input_pulsador_ok@contador+1,w
  3758  0D92  3A80               	xorlw	128
  3759  0D93  00F3               	movwf	??_input_pulsador_ok
  3760  0D94  30A7               	movlw	167
  3761  0D95  0273               	subwf	??_input_pulsador_ok,w
  3762  0D96  1D03               	skipz
  3763  0D97  2D9A               	goto	u1155
  3764  0D98  3011               	movlw	17
  3765  0D99  023A               	subwf	input_pulsador_ok@contador,w
  3766  0D9A                     u1155:	
  3767  0D9A  1C03               	skipc
  3768  0D9B  2D9D               	goto	u1151
  3769  0D9C  2D9E               	goto	u1150
  3770  0D9D                     u1151:	
  3771  0D9D  2DAB               	goto	l1692
  3772  0D9E                     u1150:	
  3773  0D9E                     l1682:	
  3774                           
  3775                           ;./input.h: 59:             contador = 0;
  3776  0D9E  0020               	movlb	0	; select bank0
  3777  0D9F  01BA               	clrf	input_pulsador_ok@contador
  3778  0DA0  01BB               	clrf	input_pulsador_ok@contador+1
  3779  0DA1                     l1684:	
  3780                           
  3781                           ;./input.h: 60:             return 1;
  3782  0DA1  3001               	movlw	1
  3783  0DA2  00F1               	movwf	?_input_pulsador_ok
  3784  0DA3  3000               	movlw	0
  3785  0DA4  00F2               	movwf	?_input_pulsador_ok+1
  3786  0DA5  2DAD               	goto	l107
  3787  0DA6                     l1688:	
  3788                           
  3789                           ;./input.h: 63:         contador = 0;
  3790  0DA6  01BA               	clrf	input_pulsador_ok@contador
  3791  0DA7  01BB               	clrf	input_pulsador_ok@contador+1
  3792                           
  3793                           ;./input.h: 64:         return 0;
  3794  0DA8  01F1               	clrf	?_input_pulsador_ok
  3795  0DA9  01F2               	clrf	?_input_pulsador_ok+1
  3796  0DAA  2DAD               	goto	l107
  3797  0DAB                     l1692:	
  3798                           
  3799                           ;./input.h: 66:     return 0;
  3800  0DAB  01F1               	clrf	?_input_pulsador_ok
  3801  0DAC  01F2               	clrf	?_input_pulsador_ok+1
  3802  0DAD                     l107:	
  3803  0DAD  0008               	return
  3804  0DAE                     __end_of_input_pulsador_ok:	
  3805                           
  3806                           	psect	text14
  3807  0DFA                     __ptext14:	
  3808 ;; *************** function _eeprom_write *****************
  3809 ;; Defined at:
  3810 ;;		line 6 in file "C:\Program Files (x86)\Microchip\xc8\v2.10\pic\sources\c99\pic\__eewrite.c"
  3811 ;; Parameters:    Size  Location     Type
  3812 ;;  addr            1    wreg     unsigned char 
  3813 ;;  value           1    1[COMMON] unsigned char 
  3814 ;; Auto vars:     Size  Location     Type
  3815 ;;  addr            1    4[COMMON] unsigned char 
  3816 ;; Return value:  Size  Location     Type
  3817 ;;                  1    wreg      void 
  3818 ;; Registers used:
  3819 ;;		wreg, status,2, status,0
  3820 ;; Tracked objects:
  3821 ;;		On entry : 0/0
  3822 ;;		On exit  : 0/0
  3823 ;;		Unchanged: 0/0
  3824 ;; Data sizes:     COMMON   BANK0   BANK1   BANK2
  3825 ;;      Params:         1       0       0       0
  3826 ;;      Locals:         1       0       0       0
  3827 ;;      Temps:          2       0       0       0
  3828 ;;      Totals:         4       0       0       0
  3829 ;;Total ram usage:        4 bytes
  3830 ;; Hardware stack levels used:    1
  3831 ;; Hardware stack levels required when called:    1
  3832 ;; This function calls:
  3833 ;;		Nothing
  3834 ;; This function is called by:
  3835 ;;		_update_eeprom
  3836 ;;		_proceso_detenido
  3837 ;; This function uses a non-reentrant model
  3838 ;;
  3839                           
  3840                           
  3841                           ;psect for function _eeprom_write
  3842  0DFA                     _eeprom_write:	
  3843                           
  3844                           ;incstack = 0
  3845                           ; Regs used in _eeprom_write: [wreg+status,2+status,0]
  3846                           ;eeprom_write@addr stored from wreg
  3847  0DFA  00F4               	movwf	eeprom_write@addr
  3848  0DFB                     l395:	
  3849                           ;C:\Program Files (x86)\Microchip\xc8\v2.10\pic\sources\c99\pic\__eewrite.c: 6: eeprom_w
      +                          rite(unsigned char addr, unsigned char value);C:\Program Files (x86)\Microchip\xc8\v2.10
      +                          \pic\sources\c99\pic\__eewrite.c: 7: {;C:\Program Files (x86)\Microchip\xc8\v2.10\pic\so
      +                          urces\c99\pic\__eewrite.c: 8:  do{ while (EECON1bits.WR) { continue; } EEADR = (addr); E
      +                          EDATA = (value); EECON1 &= 0x3F; STATUSbits.CARRY = 0; if (INTCONbits.GIE) { STATUSbits.
      +                          CARRY = 1; } INTCONbits.GIE = 0; EECON1bits.WREN = 1; EECON2 = 0x55; EECON2 = 0xAA; EECO
      +                          N1bits.WR = 1; EECON1bits.WREN = 0; if (STATUSbits.CARRY) { INTCONbits.GIE = 1; } } whil
      +                          e (0);
  3850                           
  3851  0DFB                     l396:	
  3852  0DFB  0023               	movlb	3	; select bank3
  3853  0DFC  1895               	btfsc	21,1	;volsfr
  3854  0DFD  2DFF               	goto	u1171
  3855  0DFE  2E00               	goto	u1170
  3856  0DFF                     u1171:	
  3857  0DFF  2DFB               	goto	l396
  3858  0E00                     u1170:	
  3859  0E00                     l1718:	
  3860  0E00  0874               	movf	eeprom_write@addr,w
  3861  0E01  00F2               	movwf	??_eeprom_write
  3862  0E02  01F3               	clrf	??_eeprom_write+1
  3863  0E03  0872               	movf	??_eeprom_write,w
  3864  0E04  0091               	movwf	17	;volatile
  3865  0E05  0873               	movf	??_eeprom_write+1,w
  3866  0E06  0092               	movwf	18	;volatile
  3867  0E07  0871               	movf	eeprom_write@value,w
  3868  0E08  0093               	movwf	19	;volatile
  3869  0E09                     l1720:	
  3870  0E09  303F               	movlw	63
  3871  0E0A  00F2               	movwf	??_eeprom_write
  3872  0E0B  0872               	movf	??_eeprom_write,w
  3873  0E0C  0595               	andwf	21,f	;volsfr
  3874  0E0D                     l1722:	
  3875  0E0D  0020               	movlb	0	; select bank0
  3876  0E0E  1003               	bcf	3,0	;volatile
  3877  0E0F                     l1724:	
  3878  0E0F  1F8B               	btfss	11,7	;volatile
  3879  0E10  2E12               	goto	u1181
  3880  0E11  2E13               	goto	u1180
  3881  0E12                     u1181:	
  3882  0E12  2E14               	goto	l399
  3883  0E13                     u1180:	
  3884  0E13                     l1726:	
  3885  0E13  1403               	bsf	3,0	;volatile
  3886  0E14                     l399:	
  3887  0E14  138B               	bcf	11,7	;volatile
  3888  0E15  0023               	movlb	3	; select bank3
  3889  0E16  1515               	bsf	21,2	;volsfr
  3890  0E17                     l1728:	
  3891  0E17  3055               	movlw	85
  3892  0E18  0096               	movwf	22	;volsfr
  3893  0E19  30AA               	movlw	170
  3894  0E1A  0096               	movwf	22	;volsfr
  3895  0E1B                     l1730:	
  3896  0E1B  1495               	bsf	21,1	;volsfr
  3897  0E1C                     l1732:	
  3898  0E1C  1115               	bcf	21,2	;volsfr
  3899  0E1D                     l1734:	
  3900  0E1D  0020               	movlb	0	; select bank0
  3901  0E1E  1C03               	btfss	3,0	;volatile
  3902  0E1F  2E21               	goto	u1191
  3903  0E20  2E22               	goto	u1190
  3904  0E21                     u1191:	
  3905  0E21  2E23               	goto	l402
  3906  0E22                     u1190:	
  3907  0E22                     l1736:	
  3908  0E22  178B               	bsf	11,7	;volatile
  3909  0E23                     l402:	
  3910  0E23  0008               	return
  3911  0E24                     __end_of_eeprom_write:	
  3912                           
  3913                           	psect	text15
  3914  0D3B                     __ptext15:	
  3915 ;; *************** function _output_config *****************
  3916 ;; Defined at:
  3917 ;;		line 16 in file "./output.h"
  3918 ;; Parameters:    Size  Location     Type
  3919 ;;		None
  3920 ;; Auto vars:     Size  Location     Type
  3921 ;;		None
  3922 ;; Return value:  Size  Location     Type
  3923 ;;                  1    wreg      void 
  3924 ;; Registers used:
  3925 ;;		None
  3926 ;; Tracked objects:
  3927 ;;		On entry : 0/0
  3928 ;;		On exit  : 0/0
  3929 ;;		Unchanged: 0/0
  3930 ;; Data sizes:     COMMON   BANK0   BANK1   BANK2
  3931 ;;      Params:         0       0       0       0
  3932 ;;      Locals:         0       0       0       0
  3933 ;;      Temps:          0       0       0       0
  3934 ;;      Totals:         0       0       0       0
  3935 ;;Total ram usage:        0 bytes
  3936 ;; Hardware stack levels used:    1
  3937 ;; Hardware stack levels required when called:    1
  3938 ;; This function calls:
  3939 ;;		Nothing
  3940 ;; This function is called by:
  3941 ;;		_main
  3942 ;; This function uses a non-reentrant model
  3943 ;;
  3944                           
  3945                           
  3946                           ;psect for function _output_config
  3947  0D3B                     _output_config:	
  3948  0D3B                     l1900:	
  3949                           ;incstack = 0
  3950                           ; Regs used in _output_config: []
  3951                           
  3952                           
  3953                           ;./output.h: 17:     LATAbits.LATA0 = 0;
  3954  0D3B  0022               	movlb	2	; select bank2
  3955  0D3C  100C               	bcf	12,0	;volatile
  3956                           
  3957                           ;./output.h: 18:     LATAbits.LATA4 = 0;
  3958  0D3D  120C               	bcf	12,4	;volatile
  3959                           
  3960                           ;./output.h: 19:     TRISAbits.TRISA0 = 0;
  3961  0D3E  0021               	movlb	1	; select bank1
  3962  0D3F  100C               	bcf	12,0	;volatile
  3963                           
  3964                           ;./output.h: 20:     TRISAbits.TRISA4 = 0;
  3965  0D40  120C               	bcf	12,4	;volatile
  3966  0D41                     l111:	
  3967  0D41  0008               	return
  3968  0D42                     __end_of_output_config:	
  3969                           
  3970                           	psect	text16
  3971  0D42                     __ptext16:	
  3972 ;; *************** function _oscillator_config *****************
  3973 ;; Defined at:
  3974 ;;		line 59 in file "main.c"
  3975 ;; Parameters:    Size  Location     Type
  3976 ;;		None
  3977 ;; Auto vars:     Size  Location     Type
  3978 ;;		None
  3979 ;; Return value:  Size  Location     Type
  3980 ;;                  1    wreg      void 
  3981 ;; Registers used:
  3982 ;;		wreg, status,2, status,0
  3983 ;; Tracked objects:
  3984 ;;		On entry : 0/0
  3985 ;;		On exit  : 0/0
  3986 ;;		Unchanged: 0/0
  3987 ;; Data sizes:     COMMON   BANK0   BANK1   BANK2
  3988 ;;      Params:         0       0       0       0
  3989 ;;      Locals:         0       0       0       0
  3990 ;;      Temps:          0       0       0       0
  3991 ;;      Totals:         0       0       0       0
  3992 ;;Total ram usage:        0 bytes
  3993 ;; Hardware stack levels used:    1
  3994 ;; Hardware stack levels required when called:    1
  3995 ;; This function calls:
  3996 ;;		Nothing
  3997 ;; This function is called by:
  3998 ;;		_main
  3999 ;; This function uses a non-reentrant model
  4000 ;;
  4001                           
  4002                           
  4003                           ;psect for function _oscillator_config
  4004  0D42                     _oscillator_config:	
  4005  0D42                     l1902:	
  4006                           ;incstack = 0
  4007                           ; Regs used in _oscillator_config: [wreg+status,2+status,0]
  4008                           
  4009                           
  4010                           ;main.c: 60:     OSCCONbits.IRCF = 0b1110;
  4011  0D42  0021               	movlb	1	; select bank1
  4012  0D43  0819               	movf	25,w	;volatile
  4013  0D44  3987               	andlw	-121
  4014  0D45  3870               	iorlw	112
  4015  0D46  0099               	movwf	25	;volatile
  4016                           
  4017                           ;main.c: 61:     OSCCONbits.SCS = 0b00;
  4018  0D47  30FC               	movlw	-4
  4019  0D48  0599               	andwf	25,f	;volatile
  4020  0D49                     l1904:	
  4021                           
  4022                           ;main.c: 62:     OSCCONbits.SPLLEN = 1;
  4023  0D49  1799               	bsf	25,7	;volatile
  4024  0D4A                     l152:	
  4025  0D4A  0008               	return
  4026  0D4B                     __end_of_oscillator_config:	
  4027                           
  4028                           	psect	text17
  4029  0F08                     __ptext17:	
  4030 ;; *************** function _max7219_config *****************
  4031 ;; Defined at:
  4032 ;;		line 90 in file "./max7219.h"
  4033 ;; Parameters:    Size  Location     Type
  4034 ;;		None
  4035 ;; Auto vars:     Size  Location     Type
  4036 ;;		None
  4037 ;; Return value:  Size  Location     Type
  4038 ;;                  1    wreg      void 
  4039 ;; Registers used:
  4040 ;;		wreg, status,2, status,0, pclath, cstack
  4041 ;; Tracked objects:
  4042 ;;		On entry : 0/0
  4043 ;;		On exit  : 0/0
  4044 ;;		Unchanged: 0/0
  4045 ;; Data sizes:     COMMON   BANK0   BANK1   BANK2
  4046 ;;      Params:         0       0       0       0
  4047 ;;      Locals:         0       0       0       0
  4048 ;;      Temps:          0       0       0       0
  4049 ;;      Totals:         0       0       0       0
  4050 ;;Total ram usage:        0 bytes
  4051 ;; Hardware stack levels used:    1
  4052 ;; Hardware stack levels required when called:    2
  4053 ;; This function calls:
  4054 ;;		___max7219_write
  4055 ;; This function is called by:
  4056 ;;		_main
  4057 ;; This function uses a non-reentrant model
  4058 ;;
  4059                           
  4060                           
  4061                           ;psect for function _max7219_config
  4062  0F08                     _max7219_config:	
  4063  0F08                     l1868:	
  4064                           ;incstack = 0
  4065                           ; Regs used in _max7219_config: [wreg+status,2+status,0+pclath+cstack]
  4066                           
  4067                           
  4068                           ;./max7219.h: 91:     LATCbits.LATC2 = 1;
  4069  0F08  0022               	movlb	2	; select bank2
  4070  0F09  150E               	bsf	14,2	;volatile
  4071                           
  4072                           ;./max7219.h: 92:     TRISCbits.TRISC1 = 0;
  4073  0F0A  0021               	movlb	1	; select bank1
  4074  0F0B  108E               	bcf	14,1	;volatile
  4075                           
  4076                           ;./max7219.h: 93:     TRISCbits.TRISC2 = 0;
  4077  0F0C  110E               	bcf	14,2	;volatile
  4078                           
  4079                           ;./max7219.h: 94:     TRISCbits.TRISC3 = 0;
  4080  0F0D  118E               	bcf	14,3	;volatile
  4081                           
  4082                           ;./max7219.h: 95:     LATCbits.LATC2 = 0;
  4083  0F0E  0022               	movlb	2	; select bank2
  4084  0F0F  110E               	bcf	14,2	;volatile
  4085  0F10                     l1870:	
  4086                           
  4087                           ;./max7219.h: 96:     __max7219_write(0x09, 0x00);
  4088  0F10  3009               	movlw	9
  4089  0F11  00F1               	movwf	___max7219_write@address
  4090  0F12  3000               	movlw	0
  4091  0F13  00F2               	movwf	___max7219_write@address+1
  4092  0F14  3000               	movlw	0
  4093  0F15  00F3               	movwf	___max7219_write@data
  4094  0F16  00F4               	movwf	___max7219_write@data+1
  4095  0F17  318E  26C6  318F   	fcall	___max7219_write
  4096  0F1A                     l1872:	
  4097                           
  4098                           ;./max7219.h: 97:     LATCbits.LATC2 = 1;
  4099  0F1A  0022               	movlb	2	; select bank2
  4100  0F1B  150E               	bsf	14,2	;volatile
  4101  0F1C                     l1874:	
  4102                           
  4103                           ;./max7219.h: 98:     LATCbits.LATC2 = 0;
  4104  0F1C  110E               	bcf	14,2	;volatile
  4105                           
  4106                           ;./max7219.h: 99:     __max7219_write(0x0A, 0x00);
  4107  0F1D  300A               	movlw	10
  4108  0F1E  00F1               	movwf	___max7219_write@address
  4109  0F1F  3000               	movlw	0
  4110  0F20  00F2               	movwf	___max7219_write@address+1
  4111  0F21  3000               	movlw	0
  4112  0F22  00F3               	movwf	___max7219_write@data
  4113  0F23  00F4               	movwf	___max7219_write@data+1
  4114  0F24  318E  26C6  318F   	fcall	___max7219_write
  4115  0F27                     l1876:	
  4116                           
  4117                           ;./max7219.h: 100:     LATCbits.LATC2 = 1;
  4118  0F27  0022               	movlb	2	; select bank2
  4119  0F28  150E               	bsf	14,2	;volatile
  4120  0F29                     l1878:	
  4121                           
  4122                           ;./max7219.h: 101:     LATCbits.LATC2 = 0;
  4123  0F29  110E               	bcf	14,2	;volatile
  4124                           
  4125                           ;./max7219.h: 102:     __max7219_write(0x0B, 0x07);
  4126  0F2A  300B               	movlw	11
  4127  0F2B  00F1               	movwf	___max7219_write@address
  4128  0F2C  3000               	movlw	0
  4129  0F2D  00F2               	movwf	___max7219_write@address+1
  4130  0F2E  3007               	movlw	7
  4131  0F2F  00F3               	movwf	___max7219_write@data
  4132  0F30  3000               	movlw	0
  4133  0F31  00F4               	movwf	___max7219_write@data+1
  4134  0F32  318E  26C6  318F   	fcall	___max7219_write
  4135  0F35                     l1880:	
  4136                           
  4137                           ;./max7219.h: 103:     LATCbits.LATC2 = 1;
  4138  0F35  0022               	movlb	2	; select bank2
  4139  0F36  150E               	bsf	14,2	;volatile
  4140  0F37                     l1882:	
  4141                           
  4142                           ;./max7219.h: 104:     LATCbits.LATC2 = 0;
  4143  0F37  110E               	bcf	14,2	;volatile
  4144                           
  4145                           ;./max7219.h: 105:     __max7219_write(0x0C, 0x01);
  4146  0F38  300C               	movlw	12
  4147  0F39  00F1               	movwf	___max7219_write@address
  4148  0F3A  3000               	movlw	0
  4149  0F3B  00F2               	movwf	___max7219_write@address+1
  4150  0F3C  3001               	movlw	1
  4151  0F3D  00F3               	movwf	___max7219_write@data
  4152  0F3E  3000               	movlw	0
  4153  0F3F  00F4               	movwf	___max7219_write@data+1
  4154  0F40  318E  26C6  318F   	fcall	___max7219_write
  4155  0F43                     l1884:	
  4156                           
  4157                           ;./max7219.h: 106:     LATCbits.LATC2 = 1;
  4158  0F43  0022               	movlb	2	; select bank2
  4159  0F44  150E               	bsf	14,2	;volatile
  4160  0F45                     l1886:	
  4161                           
  4162                           ;./max7219.h: 107:     LATCbits.LATC2 = 0;
  4163  0F45  110E               	bcf	14,2	;volatile
  4164                           
  4165                           ;./max7219.h: 108:     __max7219_write(0x0F, 0x00);
  4166  0F46  300F               	movlw	15
  4167  0F47  00F1               	movwf	___max7219_write@address
  4168  0F48  3000               	movlw	0
  4169  0F49  00F2               	movwf	___max7219_write@address+1
  4170  0F4A  3000               	movlw	0
  4171  0F4B  00F3               	movwf	___max7219_write@data
  4172  0F4C  00F4               	movwf	___max7219_write@data+1
  4173  0F4D  318E  26C6  318F   	fcall	___max7219_write
  4174  0F50                     l1888:	
  4175                           
  4176                           ;./max7219.h: 109:     LATCbits.LATC2 = 1;
  4177  0F50  0022               	movlb	2	; select bank2
  4178  0F51  150E               	bsf	14,2	;volatile
  4179  0F52                     l52:	
  4180  0F52  0008               	return
  4181  0F53                     __end_of_max7219_config:	
  4182                           
  4183                           	psect	text18
  4184  0D6D                     __ptext18:	
  4185 ;; *************** function _max7219_brillo *****************
  4186 ;; Defined at:
  4187 ;;		line 122 in file "./max7219.h"
  4188 ;; Parameters:    Size  Location     Type
  4189 ;;  data            2    0[BANK0 ] unsigned int 
  4190 ;; Auto vars:     Size  Location     Type
  4191 ;;		None
  4192 ;; Return value:  Size  Location     Type
  4193 ;;                  1    wreg      void 
  4194 ;; Registers used:
  4195 ;;		wreg, status,2, status,0, pclath, cstack
  4196 ;; Tracked objects:
  4197 ;;		On entry : 0/0
  4198 ;;		On exit  : 0/0
  4199 ;;		Unchanged: 0/0
  4200 ;; Data sizes:     COMMON   BANK0   BANK1   BANK2
  4201 ;;      Params:         0       2       0       0
  4202 ;;      Locals:         0       0       0       0
  4203 ;;      Temps:          0       0       0       0
  4204 ;;      Totals:         0       2       0       0
  4205 ;;Total ram usage:        2 bytes
  4206 ;; Hardware stack levels used:    1
  4207 ;; Hardware stack levels required when called:    2
  4208 ;; This function calls:
  4209 ;;		___max7219_write
  4210 ;; This function is called by:
  4211 ;;		_main
  4212 ;; This function uses a non-reentrant model
  4213 ;;
  4214                           
  4215                           
  4216                           ;psect for function _max7219_brillo
  4217  0D6D                     _max7219_brillo:	
  4218  0D6D                     l1890:	
  4219                           ;incstack = 0
  4220                           ; Regs used in _max7219_brillo: [wreg+status,2+status,0+pclath+cstack]
  4221                           
  4222                           
  4223                           ;./max7219.h: 123:     if (data < 15) {
  4224  0D6D  3000               	movlw	0
  4225  0D6E  0020               	movlb	0	; select bank0
  4226  0D6F  0257               	subwf	max7219_brillo@data+1,w
  4227  0D70  300F               	movlw	15
  4228  0D71  1903               	skipnz
  4229  0D72  0256               	subwf	max7219_brillo@data,w
  4230  0D73  1803               	skipnc
  4231  0D74  2D76               	goto	u1521
  4232  0D75  2D77               	goto	u1520
  4233  0D76                     u1521:	
  4234  0D76  2D87               	goto	l64
  4235  0D77                     u1520:	
  4236  0D77                     l1892:	
  4237                           
  4238                           ;./max7219.h: 124:         LATCbits.LATC2 = 0;
  4239  0D77  0022               	movlb	2	; select bank2
  4240  0D78  110E               	bcf	14,2	;volatile
  4241  0D79                     l1894:	
  4242                           
  4243                           ;./max7219.h: 125:         __max7219_write(0x0A, data);
  4244  0D79  300A               	movlw	10
  4245  0D7A  00F1               	movwf	___max7219_write@address
  4246  0D7B  3000               	movlw	0
  4247  0D7C  00F2               	movwf	___max7219_write@address+1
  4248  0D7D  0020               	movlb	0	; select bank0
  4249  0D7E  0857               	movf	max7219_brillo@data+1,w
  4250  0D7F  00F4               	movwf	___max7219_write@data+1
  4251  0D80  0856               	movf	max7219_brillo@data,w
  4252  0D81  00F3               	movwf	___max7219_write@data
  4253  0D82  318E  26C6  318D   	fcall	___max7219_write
  4254  0D85                     l1896:	
  4255                           
  4256                           ;./max7219.h: 126:         LATCbits.LATC2 = 1;
  4257  0D85  0022               	movlb	2	; select bank2
  4258  0D86  150E               	bsf	14,2	;volatile
  4259  0D87                     l64:	
  4260  0D87  0008               	return
  4261  0D88                     __end_of_max7219_brillo:	
  4262                           
  4263                           	psect	text19
  4264  0D16                     __ptext19:	
  4265 ;; *************** function _input_config *****************
  4266 ;; Defined at:
  4267 ;;		line 20 in file "./input.h"
  4268 ;; Parameters:    Size  Location     Type
  4269 ;;		None
  4270 ;; Auto vars:     Size  Location     Type
  4271 ;;		None
  4272 ;; Return value:  Size  Location     Type
  4273 ;;                  1    wreg      void 
  4274 ;; Registers used:
  4275 ;;		None
  4276 ;; Tracked objects:
  4277 ;;		On entry : 0/0
  4278 ;;		On exit  : 0/0
  4279 ;;		Unchanged: 0/0
  4280 ;; Data sizes:     COMMON   BANK0   BANK1   BANK2
  4281 ;;      Params:         0       0       0       0
  4282 ;;      Locals:         0       0       0       0
  4283 ;;      Temps:          0       0       0       0
  4284 ;;      Totals:         0       0       0       0
  4285 ;;Total ram usage:        0 bytes
  4286 ;; Hardware stack levels used:    1
  4287 ;; Hardware stack levels required when called:    1
  4288 ;; This function calls:
  4289 ;;		Nothing
  4290 ;; This function is called by:
  4291 ;;		_main
  4292 ;; This function uses a non-reentrant model
  4293 ;;
  4294                           
  4295                           
  4296                           ;psect for function _input_config
  4297  0D16                     _input_config:	
  4298  0D16                     l1898:	
  4299                           ;incstack = 0
  4300                           ; Regs used in _input_config: []
  4301                           
  4302                           
  4303                           ;./input.h: 21:     TRISAbits.TRISA5 = 1;
  4304  0D16  0021               	movlb	1	; select bank1
  4305  0D17  168C               	bsf	12,5	;volatile
  4306                           
  4307                           ;./input.h: 22:     TRISAbits.TRISA3 = 1;
  4308  0D18  158C               	bsf	12,3	;volatile
  4309                           
  4310                           ;./input.h: 23:     TRISCbits.TRISC5 = 1;
  4311  0D19  168E               	bsf	14,5	;volatile
  4312                           
  4313                           ;./input.h: 24:     TRISCbits.TRISC4 = 1;
  4314  0D1A  160E               	bsf	14,4	;volatile
  4315  0D1B                     l84:	
  4316  0D1B  0008               	return
  4317  0D1C                     __end_of_input_config:	
  4318                           
  4319                           	psect	text20
  4320  043B                     __ptext20:	
  4321 ;; *************** function _display_init *****************
  4322 ;; Defined at:
  4323 ;;		line 92 in file "main.c"
  4324 ;; Parameters:    Size  Location     Type
  4325 ;;		None
  4326 ;; Auto vars:     Size  Location     Type
  4327 ;;  j               2   12[BANK0 ] int 
  4328 ;;  i               2   10[BANK0 ] int 
  4329 ;; Return value:  Size  Location     Type
  4330 ;;                  1    wreg      void 
  4331 ;; Registers used:
  4332 ;;		wreg, fsr1l, fsr1h, status,2, status,0, pclath, cstack
  4333 ;; Tracked objects:
  4334 ;;		On entry : 0/0
  4335 ;;		On exit  : 0/0
  4336 ;;		Unchanged: 0/0
  4337 ;; Data sizes:     COMMON   BANK0   BANK1   BANK2
  4338 ;;      Params:         0       0       0       0
  4339 ;;      Locals:         0       4       0       0
  4340 ;;      Temps:          0       1       0       0
  4341 ;;      Totals:         0       5       0       0
  4342 ;;Total ram usage:        5 bytes
  4343 ;; Hardware stack levels used:    1
  4344 ;; Hardware stack levels required when called:    3
  4345 ;; This function calls:
  4346 ;;		___awdiv
  4347 ;;		___awmod
  4348 ;;		_max7219_points
  4349 ;;		_max7219_writeChar
  4350 ;;		_output_relay
  4351 ;; This function is called by:
  4352 ;;		_main
  4353 ;; This function uses a non-reentrant model
  4354 ;;
  4355                           
  4356                           
  4357                           ;psect for function _display_init
  4358  043B                     _display_init:	
  4359  043B                     l2016:	
  4360                           ;incstack = 0
  4361                           ; Regs used in _display_init: [wreg+fsr1l+fsr1h+status,2+status,0+pclath+cstack]
  4362                           
  4363  043B  0020               	movlb	0	; select bank0
  4364  043C  01E2               	clrf	display_init@j
  4365  043D  01E3               	clrf	display_init@j+1
  4366  043E                     l2018:	
  4367                           
  4368                           ;main.c: 94:     for (i = 10; i > 0; i--) {
  4369  043E  300A               	movlw	10
  4370  043F  00E0               	movwf	display_init@i
  4371  0440  3000               	movlw	0
  4372  0441  00E1               	movwf	display_init@i+1
  4373  0442                     l2024:	
  4374                           
  4375                           ;main.c: 95:         for (j = 1; j < 9; j++) {
  4376  0442  3001               	movlw	1
  4377  0443  0020               	movlb	0	; select bank0
  4378  0444  00E2               	movwf	display_init@j
  4379  0445  3000               	movlw	0
  4380  0446  00E3               	movwf	display_init@j+1
  4381  0447                     l2028:	
  4382                           
  4383                           ;main.c: 96:             max7219_writeChar(j, i - 1);
  4384  0447  0020               	movlb	0	; select bank0
  4385  0448  0863               	movf	display_init@j+1,w
  4386  0449  00DA               	movwf	max7219_writeChar@pos+1
  4387  044A  0862               	movf	display_init@j,w
  4388  044B  00D9               	movwf	max7219_writeChar@pos
  4389  044C  0860               	movf	display_init@i,w
  4390  044D  3EFF               	addlw	255
  4391  044E  00DB               	movwf	max7219_writeChar@data
  4392  044F  30FF               	movlw	255
  4393  0450  3D61               	addwfc	display_init@i+1,w
  4394  0451  00DC               	movwf	max7219_writeChar@data+1
  4395  0452  318F  27A6  3184   	fcall	_max7219_writeChar
  4396  0455                     l2030:	
  4397                           
  4398                           ;main.c: 97:         }
  4399  0455  3001               	movlw	1
  4400  0456  0020               	movlb	0	; select bank0
  4401  0457  07E2               	addwf	display_init@j,f
  4402  0458  3000               	movlw	0
  4403  0459  3DE3               	addwfc	display_init@j+1,f
  4404  045A                     l2032:	
  4405  045A  0863               	movf	display_init@j+1,w
  4406  045B  3A80               	xorlw	128
  4407  045C  00DF               	movwf	??_display_init
  4408  045D  3080               	movlw	128
  4409  045E  025F               	subwf	??_display_init,w
  4410  045F  1D03               	skipz
  4411  0460  2C63               	goto	u1605
  4412  0461  3009               	movlw	9
  4413  0462  0262               	subwf	display_init@j,w
  4414  0463                     u1605:	
  4415  0463  1C03               	skipc
  4416  0464  2C66               	goto	u1601
  4417  0465  2C67               	goto	u1600
  4418  0466                     u1601:	
  4419  0466  2C47               	goto	l2028
  4420  0467                     u1600:	
  4421  0467                     l2034:	
  4422                           
  4423                           ;main.c: 98:         for (k = 0; k < 200000; k++);
  4424  0467  3000               	movlw	0
  4425  0468  0020               	movlb	0	; select bank0
  4426  0469  00A3               	movwf	_k+3
  4427  046A  3000               	movlw	0
  4428  046B  00A2               	movwf	_k+2
  4429  046C  3000               	movlw	0
  4430  046D  00A1               	movwf	_k+1
  4431  046E  3000               	movlw	0
  4432  046F  00A0               	movwf	_k
  4433  0470                     l2036:	
  4434  0470  1BA3               	btfsc	_k+3,7
  4435  0471  2C7E               	goto	u1611
  4436  0472  0823               	movf	_k+3,w
  4437  0473  1D03               	btfss	3,2
  4438  0474  2C7F               	goto	u1610
  4439  0475  3040               	movlw	64
  4440  0476  0220               	subwf	_k,w
  4441  0477  300D               	movlw	13
  4442  0478  3B21               	subwfb	_k+1,w
  4443  0479  3003               	movlw	3
  4444  047A  3B22               	subwfb	_k+2,w
  4445  047B  1C03               	btfss	3,0
  4446  047C  2C7E               	goto	u1611
  4447  047D  2C7F               	goto	u1610
  4448  047E                     u1611:	
  4449  047E  2C80               	goto	l2040
  4450  047F                     u1610:	
  4451  047F  2C89               	goto	l2044
  4452  0480                     l2040:	
  4453  0480  3001               	movlw	1
  4454  0481  07A0               	addwf	_k,f
  4455  0482  3000               	movlw	0
  4456  0483  3DA1               	addwfc	_k+1,f
  4457  0484  3000               	movlw	0
  4458  0485  3DA2               	addwfc	_k+2,f
  4459  0486  3000               	movlw	0
  4460  0487  3DA3               	addwfc	_k+3,f
  4461  0488  2C70               	goto	l2036
  4462  0489                     l2044:	
  4463                           
  4464                           ;main.c: 99:     }
  4465  0489  30FF               	movlw	255
  4466  048A  07E0               	addwf	display_init@i,f
  4467  048B  30FF               	movlw	255
  4468  048C  3DE1               	addwfc	display_init@i+1,f
  4469  048D  0861               	movf	display_init@i+1,w
  4470  048E  3A80               	xorlw	128
  4471  048F  00DF               	movwf	??_display_init
  4472  0490  3080               	movlw	128
  4473  0491  025F               	subwf	??_display_init,w
  4474  0492  1D03               	skipz
  4475  0493  2C96               	goto	u1625
  4476  0494  3001               	movlw	1
  4477  0495  0260               	subwf	display_init@i,w
  4478  0496                     u1625:	
  4479  0496  1803               	skipnc
  4480  0497  2C99               	goto	u1621
  4481  0498  2C9A               	goto	u1620
  4482  0499                     u1621:	
  4483  0499  2C42               	goto	l2024
  4484  049A                     u1620:	
  4485  049A                     l2046:	
  4486                           
  4487                           ;main.c: 100:     max7219_points(0x01, 0x01);
  4488  049A  3001               	movlw	1
  4489  049B  00F1               	movwf	max7219_points@points
  4490  049C  3000               	movlw	0
  4491  049D  00F2               	movwf	max7219_points@points+1
  4492  049E  3001               	movlw	1
  4493  049F  00F3               	movwf	max7219_points@nivel
  4494  04A0  3000               	movlw	0
  4495  04A1  00F4               	movwf	max7219_points@nivel+1
  4496  04A2  3187  271F  3184   	fcall	_max7219_points
  4497                           
  4498                           ;main.c: 101:     max7219_points(0x01, 0x00);
  4499  04A5  3001               	movlw	1
  4500  04A6  00F1               	movwf	max7219_points@points
  4501  04A7  3000               	movlw	0
  4502  04A8  00F2               	movwf	max7219_points@points+1
  4503  04A9  3000               	movlw	0
  4504  04AA  00F3               	movwf	max7219_points@nivel
  4505  04AB  00F4               	movwf	max7219_points@nivel+1
  4506  04AC  3187  271F  3184   	fcall	_max7219_points
  4507                           
  4508                           ;main.c: 102:     max7219_writeChar(1, minutos_set / 10);
  4509  04AF  3001               	movlw	1
  4510  04B0  0020               	movlb	0	; select bank0
  4511  04B1  00D9               	movwf	max7219_writeChar@pos
  4512  04B2  3000               	movlw	0
  4513  04B3  00DA               	movwf	max7219_writeChar@pos+1
  4514  04B4  300A               	movlw	10
  4515  04B5  00F1               	movwf	___awdiv@divisor
  4516  04B6  3000               	movlw	0
  4517  04B7  00F2               	movwf	___awdiv@divisor+1
  4518  04B8  0839               	movf	_minutos_set+1,w
  4519  04B9  00F4               	movwf	___awdiv@dividend+1
  4520  04BA  0838               	movf	_minutos_set,w
  4521  04BB  00F3               	movwf	___awdiv@dividend
  4522  04BC  3187  278B  3184   	fcall	___awdiv
  4523  04BF  0872               	movf	?___awdiv+1,w
  4524  04C0  0020               	movlb	0	; select bank0
  4525  04C1  00DC               	movwf	max7219_writeChar@data+1
  4526  04C2  0871               	movf	?___awdiv,w
  4527  04C3  00DB               	movwf	max7219_writeChar@data
  4528  04C4  318F  27A6  3184   	fcall	_max7219_writeChar
  4529                           
  4530                           ;main.c: 103:     max7219_writeChar(5, minutos_set % 10);
  4531  04C7  3005               	movlw	5
  4532  04C8  0020               	movlb	0	; select bank0
  4533  04C9  00D9               	movwf	max7219_writeChar@pos
  4534  04CA  3000               	movlw	0
  4535  04CB  00DA               	movwf	max7219_writeChar@pos+1
  4536  04CC  300A               	movlw	10
  4537  04CD  00F1               	movwf	___awmod@divisor
  4538  04CE  3000               	movlw	0
  4539  04CF  00F2               	movwf	___awmod@divisor+1
  4540  04D0  0839               	movf	_minutos_set+1,w
  4541  04D1  00F4               	movwf	___awmod@dividend+1
  4542  04D2  0838               	movf	_minutos_set,w
  4543  04D3  00F3               	movwf	___awmod@dividend
  4544  04D4  318F  2753  3184   	fcall	___awmod
  4545  04D7  0872               	movf	?___awmod+1,w
  4546  04D8  0020               	movlb	0	; select bank0
  4547  04D9  00DC               	movwf	max7219_writeChar@data+1
  4548  04DA  0871               	movf	?___awmod,w
  4549  04DB  00DB               	movwf	max7219_writeChar@data
  4550  04DC  318F  27A6  3184   	fcall	_max7219_writeChar
  4551                           
  4552                           ;main.c: 104:     max7219_writeChar(7, segundos_set / 10);
  4553  04DF  3007               	movlw	7
  4554  04E0  0020               	movlb	0	; select bank0
  4555  04E1  00D9               	movwf	max7219_writeChar@pos
  4556  04E2  3000               	movlw	0
  4557  04E3  00DA               	movwf	max7219_writeChar@pos+1
  4558  04E4  300A               	movlw	10
  4559  04E5  00F1               	movwf	___awdiv@divisor
  4560  04E6  3000               	movlw	0
  4561  04E7  00F2               	movwf	___awdiv@divisor+1
  4562  04E8  0837               	movf	_segundos_set+1,w
  4563  04E9  00F4               	movwf	___awdiv@dividend+1
  4564  04EA  0836               	movf	_segundos_set,w
  4565  04EB  00F3               	movwf	___awdiv@dividend
  4566  04EC  3187  278B  3184   	fcall	___awdiv
  4567  04EF  0872               	movf	?___awdiv+1,w
  4568  04F0  0020               	movlb	0	; select bank0
  4569  04F1  00DC               	movwf	max7219_writeChar@data+1
  4570  04F2  0871               	movf	?___awdiv,w
  4571  04F3  00DB               	movwf	max7219_writeChar@data
  4572  04F4  318F  27A6  3184   	fcall	_max7219_writeChar
  4573                           
  4574                           ;main.c: 105:     max7219_writeChar(3, segundos_set % 10);
  4575  04F7  3003               	movlw	3
  4576  04F8  0020               	movlb	0	; select bank0
  4577  04F9  00D9               	movwf	max7219_writeChar@pos
  4578  04FA  3000               	movlw	0
  4579  04FB  00DA               	movwf	max7219_writeChar@pos+1
  4580  04FC  300A               	movlw	10
  4581  04FD  00F1               	movwf	___awmod@divisor
  4582  04FE  3000               	movlw	0
  4583  04FF  00F2               	movwf	___awmod@divisor+1
  4584  0500  0837               	movf	_segundos_set+1,w
  4585  0501  00F4               	movwf	___awmod@dividend+1
  4586  0502  0836               	movf	_segundos_set,w
  4587  0503  00F3               	movwf	___awmod@dividend
  4588  0504  318F  2753  3184   	fcall	___awmod
  4589  0507  0872               	movf	?___awmod+1,w
  4590  0508  0020               	movlb	0	; select bank0
  4591  0509  00DC               	movwf	max7219_writeChar@data+1
  4592  050A  0871               	movf	?___awmod,w
  4593  050B  00DB               	movwf	max7219_writeChar@data
  4594  050C  318F  27A6  3184   	fcall	_max7219_writeChar
  4595                           
  4596                           ;main.c: 106:     max7219_writeChar(8, minutos_temp / 10);
  4597  050F  3008               	movlw	8
  4598  0510  0020               	movlb	0	; select bank0
  4599  0511  00D9               	movwf	max7219_writeChar@pos
  4600  0512  3000               	movlw	0
  4601  0513  00DA               	movwf	max7219_writeChar@pos+1
  4602  0514  300A               	movlw	10
  4603  0515  00F1               	movwf	___awdiv@divisor
  4604  0516  3000               	movlw	0
  4605  0517  00F2               	movwf	___awdiv@divisor+1
  4606  0518  0835               	movf	_minutos_temp+1,w
  4607  0519  00F4               	movwf	___awdiv@dividend+1
  4608  051A  0834               	movf	_minutos_temp,w
  4609  051B  00F3               	movwf	___awdiv@dividend
  4610  051C  3187  278B  3184   	fcall	___awdiv
  4611  051F  0872               	movf	?___awdiv+1,w
  4612  0520  0020               	movlb	0	; select bank0
  4613  0521  00DC               	movwf	max7219_writeChar@data+1
  4614  0522  0871               	movf	?___awdiv,w
  4615  0523  00DB               	movwf	max7219_writeChar@data
  4616  0524  318F  27A6  3184   	fcall	_max7219_writeChar
  4617                           
  4618                           ;main.c: 107:     max7219_writeChar(6, minutos_temp % 10);
  4619  0527  3006               	movlw	6
  4620  0528  0020               	movlb	0	; select bank0
  4621  0529  00D9               	movwf	max7219_writeChar@pos
  4622  052A  3000               	movlw	0
  4623  052B  00DA               	movwf	max7219_writeChar@pos+1
  4624  052C  300A               	movlw	10
  4625  052D  00F1               	movwf	___awmod@divisor
  4626  052E  3000               	movlw	0
  4627  052F  00F2               	movwf	___awmod@divisor+1
  4628  0530  0835               	movf	_minutos_temp+1,w
  4629  0531  00F4               	movwf	___awmod@dividend+1
  4630  0532  0834               	movf	_minutos_temp,w
  4631  0533  00F3               	movwf	___awmod@dividend
  4632  0534  318F  2753  3184   	fcall	___awmod
  4633  0537  0872               	movf	?___awmod+1,w
  4634  0538  0020               	movlb	0	; select bank0
  4635  0539  00DC               	movwf	max7219_writeChar@data+1
  4636  053A  0871               	movf	?___awmod,w
  4637  053B  00DB               	movwf	max7219_writeChar@data
  4638  053C  318F  27A6  3184   	fcall	_max7219_writeChar
  4639                           
  4640                           ;main.c: 108:     max7219_writeChar(2, segundos_temp / 10);
  4641  053F  3002               	movlw	2
  4642  0540  0020               	movlb	0	; select bank0
  4643  0541  00D9               	movwf	max7219_writeChar@pos
  4644  0542  3000               	movlw	0
  4645  0543  00DA               	movwf	max7219_writeChar@pos+1
  4646  0544  300A               	movlw	10
  4647  0545  00F1               	movwf	___awdiv@divisor
  4648  0546  3000               	movlw	0
  4649  0547  00F2               	movwf	___awdiv@divisor+1
  4650  0548  0833               	movf	_segundos_temp+1,w
  4651  0549  00F4               	movwf	___awdiv@dividend+1
  4652  054A  0832               	movf	_segundos_temp,w
  4653  054B  00F3               	movwf	___awdiv@dividend
  4654  054C  3187  278B  3184   	fcall	___awdiv
  4655  054F  0872               	movf	?___awdiv+1,w
  4656  0550  0020               	movlb	0	; select bank0
  4657  0551  00DC               	movwf	max7219_writeChar@data+1
  4658  0552  0871               	movf	?___awdiv,w
  4659  0553  00DB               	movwf	max7219_writeChar@data
  4660  0554  318F  27A6  3184   	fcall	_max7219_writeChar
  4661                           
  4662                           ;main.c: 109:     max7219_writeChar(4, segundos_temp % 10);
  4663  0557  3004               	movlw	4
  4664  0558  0020               	movlb	0	; select bank0
  4665  0559  00D9               	movwf	max7219_writeChar@pos
  4666  055A  3000               	movlw	0
  4667  055B  00DA               	movwf	max7219_writeChar@pos+1
  4668  055C  300A               	movlw	10
  4669  055D  00F1               	movwf	___awmod@divisor
  4670  055E  3000               	movlw	0
  4671  055F  00F2               	movwf	___awmod@divisor+1
  4672  0560  0833               	movf	_segundos_temp+1,w
  4673  0561  00F4               	movwf	___awmod@dividend+1
  4674  0562  0832               	movf	_segundos_temp,w
  4675  0563  00F3               	movwf	___awmod@dividend
  4676  0564  318F  2753  3184   	fcall	___awmod
  4677  0567  0872               	movf	?___awmod+1,w
  4678  0568  0020               	movlb	0	; select bank0
  4679  0569  00DC               	movwf	max7219_writeChar@data+1
  4680  056A  0871               	movf	?___awmod,w
  4681  056B  00DB               	movwf	max7219_writeChar@data
  4682  056C  318F  27A6  3184   	fcall	_max7219_writeChar
  4683  056F                     l2048:	
  4684                           
  4685                           ;main.c: 110:     output_relay(1);
  4686  056F  3001               	movlw	1
  4687  0570  00F1               	movwf	output_relay@d
  4688  0571  3000               	movlw	0
  4689  0572  00F2               	movwf	output_relay@d+1
  4690  0573  318D  2534  3184   	fcall	_output_relay
  4691  0576                     l2050:	
  4692                           
  4693                           ;main.c: 111:     for (k = 0; k < 100000; k++);
  4694  0576  3000               	movlw	0
  4695  0577  0020               	movlb	0	; select bank0
  4696  0578  00A3               	movwf	_k+3
  4697  0579  3000               	movlw	0
  4698  057A  00A2               	movwf	_k+2
  4699  057B  3000               	movlw	0
  4700  057C  00A1               	movwf	_k+1
  4701  057D  3000               	movlw	0
  4702  057E  00A0               	movwf	_k
  4703  057F                     l2052:	
  4704  057F  1BA3               	btfsc	_k+3,7
  4705  0580  2D8D               	goto	u1631
  4706  0581  0823               	movf	_k+3,w
  4707  0582  1D03               	btfss	3,2
  4708  0583  2D8E               	goto	u1630
  4709  0584  30A0               	movlw	160
  4710  0585  0220               	subwf	_k,w
  4711  0586  3086               	movlw	134
  4712  0587  3B21               	subwfb	_k+1,w
  4713  0588  3001               	movlw	1
  4714  0589  3B22               	subwfb	_k+2,w
  4715  058A  1C03               	btfss	3,0
  4716  058B  2D8D               	goto	u1631
  4717  058C  2D8E               	goto	u1630
  4718  058D                     u1631:	
  4719  058D  2D8F               	goto	l2056
  4720  058E                     u1630:	
  4721  058E  2D98               	goto	l2060
  4722  058F                     l2056:	
  4723  058F  3001               	movlw	1
  4724  0590  07A0               	addwf	_k,f
  4725  0591  3000               	movlw	0
  4726  0592  3DA1               	addwfc	_k+1,f
  4727  0593  3000               	movlw	0
  4728  0594  3DA2               	addwfc	_k+2,f
  4729  0595  3000               	movlw	0
  4730  0596  3DA3               	addwfc	_k+3,f
  4731  0597  2D7F               	goto	l2052
  4732  0598                     l2060:	
  4733                           
  4734                           ;main.c: 112:     output_relay(0);
  4735  0598  3000               	movlw	0
  4736  0599  00F1               	movwf	output_relay@d
  4737  059A  00F2               	movwf	output_relay@d+1
  4738  059B  318D  2534  3184   	fcall	_output_relay
  4739  059E                     l172:	
  4740  059E  0008               	return
  4741  059F                     __end_of_display_init:	
  4742                           
  4743                           	psect	text21
  4744  0D34                     __ptext21:	
  4745 ;; *************** function _output_relay *****************
  4746 ;; Defined at:
  4747 ;;		line 27 in file "./output.h"
  4748 ;; Parameters:    Size  Location     Type
  4749 ;;  d               2    1[COMMON] int 
  4750 ;; Auto vars:     Size  Location     Type
  4751 ;;		None
  4752 ;; Return value:  Size  Location     Type
  4753 ;;                  1    wreg      void 
  4754 ;; Registers used:
  4755 ;;		wreg, status,0
  4756 ;; Tracked objects:
  4757 ;;		On entry : 0/0
  4758 ;;		On exit  : 0/0
  4759 ;;		Unchanged: 0/0
  4760 ;; Data sizes:     COMMON   BANK0   BANK1   BANK2
  4761 ;;      Params:         2       0       0       0
  4762 ;;      Locals:         0       0       0       0
  4763 ;;      Temps:          0       0       0       0
  4764 ;;      Totals:         2       0       0       0
  4765 ;;Total ram usage:        2 bytes
  4766 ;; Hardware stack levels used:    1
  4767 ;; Hardware stack levels required when called:    1
  4768 ;; This function calls:
  4769 ;;		Nothing
  4770 ;; This function is called by:
  4771 ;;		_display_init
  4772 ;;		_proceso_run
  4773 ;;		_proceso_detenido
  4774 ;; This function uses a non-reentrant model
  4775 ;;
  4776                           
  4777                           
  4778                           ;psect for function _output_relay
  4779  0D34                     _output_relay:	
  4780  0D34                     l1696:	
  4781                           ;incstack = 0
  4782                           ; Regs used in _output_relay: [wreg+status,0]
  4783                           
  4784                           
  4785                           ;./output.h: 28:     LATAbits.LATA4 = d;
  4786  0D34  0C71               	rrf	output_relay@d,w
  4787  0D35  0022               	movlb	2	; select bank2
  4788  0D36  1C03               	skipc
  4789  0D37  120C               	bcf	12,4	;volatile
  4790  0D38  1803               	skipnc
  4791  0D39  160C               	bsf	12,4	;volatile
  4792  0D3A                     l117:	
  4793  0D3A  0008               	return
  4794  0D3B                     __end_of_output_relay:	
  4795                           
  4796                           	psect	text22
  4797  0FA6                     __ptext22:	
  4798 ;; *************** function _max7219_writeChar *****************
  4799 ;; Defined at:
  4800 ;;		line 112 in file "./max7219.h"
  4801 ;; Parameters:    Size  Location     Type
  4802 ;;  pos             2    3[BANK0 ] unsigned int 
  4803 ;;  data            2    5[BANK0 ] unsigned int 
  4804 ;; Auto vars:     Size  Location     Type
  4805 ;;		None
  4806 ;; Return value:  Size  Location     Type
  4807 ;;                  1    wreg      void 
  4808 ;; Registers used:
  4809 ;;		wreg, fsr1l, fsr1h, status,2, status,0, pclath, cstack
  4810 ;; Tracked objects:
  4811 ;;		On entry : 0/0
  4812 ;;		On exit  : 0/0
  4813 ;;		Unchanged: 0/0
  4814 ;; Data sizes:     COMMON   BANK0   BANK1   BANK2
  4815 ;;      Params:         0       4       0       0
  4816 ;;      Locals:         0       0       0       0
  4817 ;;      Temps:          0       2       0       0
  4818 ;;      Totals:         0       6       0       0
  4819 ;;Total ram usage:        6 bytes
  4820 ;; Hardware stack levels used:    1
  4821 ;; Hardware stack levels required when called:    2
  4822 ;; This function calls:
  4823 ;;		___max7219_write
  4824 ;; This function is called by:
  4825 ;;		_display_init
  4826 ;;		_update_eeprom
  4827 ;;		_proceso_subir_bajar_tiempo
  4828 ;;		_proceso_run
  4829 ;;		_proceso_detenido
  4830 ;; This function uses a non-reentrant model
  4831 ;;
  4832                           
  4833                           
  4834                           ;psect for function _max7219_writeChar
  4835  0FA6                     _max7219_writeChar:	
  4836  0FA6                     l1568:	
  4837                           ;incstack = 0
  4838                           ; Regs used in _max7219_writeChar: [wreg+fsr1l+fsr1h+status,2+status,0+pclath+cstack]
  4839                           
  4840                           
  4841                           ;./max7219.h: 113:     if (pos > 0 && pos < 9 && data < 10) {
  4842  0FA6  0020               	movlb	0	; select bank0
  4843  0FA7  0859               	movf	max7219_writeChar@pos,w
  4844  0FA8  045A               	iorwf	max7219_writeChar@pos+1,w
  4845  0FA9  1903               	btfsc	3,2
  4846  0FAA  2FAC               	goto	u961
  4847  0FAB  2FAD               	goto	u960
  4848  0FAC                     u961:	
  4849  0FAC  2FFF               	goto	l60
  4850  0FAD                     u960:	
  4851  0FAD                     l1570:	
  4852  0FAD  3000               	movlw	0
  4853  0FAE  025A               	subwf	max7219_writeChar@pos+1,w
  4854  0FAF  3009               	movlw	9
  4855  0FB0  1903               	skipnz
  4856  0FB1  0259               	subwf	max7219_writeChar@pos,w
  4857  0FB2  1803               	skipnc
  4858  0FB3  2FB5               	goto	u971
  4859  0FB4  2FB6               	goto	u970
  4860  0FB5                     u971:	
  4861  0FB5  2FFF               	goto	l60
  4862  0FB6                     u970:	
  4863  0FB6                     l1572:	
  4864  0FB6  3000               	movlw	0
  4865  0FB7  025C               	subwf	max7219_writeChar@data+1,w
  4866  0FB8  300A               	movlw	10
  4867  0FB9  1903               	skipnz
  4868  0FBA  025B               	subwf	max7219_writeChar@data,w
  4869  0FBB  1803               	skipnc
  4870  0FBC  2FBE               	goto	u981
  4871  0FBD  2FBF               	goto	u980
  4872  0FBE                     u981:	
  4873  0FBE  2FFF               	goto	l60
  4874  0FBF                     u980:	
  4875  0FBF                     l1574:	
  4876                           
  4877                           ;./max7219.h: 114:         if (pos == 1 || pos == 5 || pos == 7 || pos == 3) {
  4878  0FBF  0359               	decf	max7219_writeChar@pos,w
  4879  0FC0  045A               	iorwf	max7219_writeChar@pos+1,w
  4880  0FC1  1903               	btfsc	3,2
  4881  0FC2  2FC4               	goto	u991
  4882  0FC3  2FC5               	goto	u990
  4883  0FC4                     u991:	
  4884  0FC4  2FDA               	goto	l1582
  4885  0FC5                     u990:	
  4886  0FC5                     l1576:	
  4887  0FC5  3005               	movlw	5
  4888  0FC6  0659               	xorwf	max7219_writeChar@pos,w
  4889  0FC7  045A               	iorwf	max7219_writeChar@pos+1,w
  4890  0FC8  1903               	btfsc	3,2
  4891  0FC9  2FCB               	goto	u1001
  4892  0FCA  2FCC               	goto	u1000
  4893  0FCB                     u1001:	
  4894  0FCB  2FDA               	goto	l1582
  4895  0FCC                     u1000:	
  4896  0FCC                     l1578:	
  4897  0FCC  3007               	movlw	7
  4898  0FCD  0659               	xorwf	max7219_writeChar@pos,w
  4899  0FCE  045A               	iorwf	max7219_writeChar@pos+1,w
  4900  0FCF  1903               	btfsc	3,2
  4901  0FD0  2FD2               	goto	u1011
  4902  0FD1  2FD3               	goto	u1010
  4903  0FD2                     u1011:	
  4904  0FD2  2FDA               	goto	l1582
  4905  0FD3                     u1010:	
  4906  0FD3                     l1580:	
  4907  0FD3  3003               	movlw	3
  4908  0FD4  0659               	xorwf	max7219_writeChar@pos,w
  4909  0FD5  045A               	iorwf	max7219_writeChar@pos+1,w
  4910  0FD6  1D03               	btfss	3,2
  4911  0FD7  2FD9               	goto	u1021
  4912  0FD8  2FDA               	goto	u1020
  4913  0FD9                     u1021:	
  4914  0FD9  2FED               	goto	l1584
  4915  0FDA                     u1020:	
  4916  0FDA                     l1582:	
  4917                           
  4918                           ;./max7219.h: 115:             __max7219_write(pos, __digitos_1[data]);
  4919  0FDA  085A               	movf	max7219_writeChar@pos+1,w
  4920  0FDB  00F2               	movwf	___max7219_write@address+1
  4921  0FDC  0859               	movf	max7219_writeChar@pos,w
  4922  0FDD  00F1               	movwf	___max7219_write@address
  4923  0FDE  085B               	movf	max7219_writeChar@data,w
  4924  0FDF  3E4B               	addlw	(low (___digitos_1| 0))& (0+255)
  4925  0FE0  0086               	movwf	6
  4926  0FE1  0187               	clrf	7
  4927  0FE2  0801               	movf	1,w
  4928  0FE3  00DD               	movwf	??_max7219_writeChar
  4929  0FE4  01DE               	clrf	??_max7219_writeChar+1
  4930  0FE5  085D               	movf	??_max7219_writeChar,w
  4931  0FE6  00F3               	movwf	___max7219_write@data
  4932  0FE7  085E               	movf	??_max7219_writeChar+1,w
  4933  0FE8  00F4               	movwf	___max7219_write@data+1
  4934  0FE9  318E  26C6  318F   	fcall	___max7219_write
  4935                           
  4936                           ;./max7219.h: 116:         } else {
  4937  0FEC  2FFF               	goto	l60
  4938  0FED                     l1584:	
  4939                           
  4940                           ;./max7219.h: 117:             __max7219_write(pos, __digitos_2[data]);
  4941  0FED  085A               	movf	max7219_writeChar@pos+1,w
  4942  0FEE  00F2               	movwf	___max7219_write@address+1
  4943  0FEF  0859               	movf	max7219_writeChar@pos,w
  4944  0FF0  00F1               	movwf	___max7219_write@address
  4945  0FF1  085B               	movf	max7219_writeChar@data,w
  4946  0FF2  3E40               	addlw	(low (___digitos_2| 0))& (0+255)
  4947  0FF3  0086               	movwf	6
  4948  0FF4  0187               	clrf	7
  4949  0FF5  0801               	movf	1,w
  4950  0FF6  00DD               	movwf	??_max7219_writeChar
  4951  0FF7  01DE               	clrf	??_max7219_writeChar+1
  4952  0FF8  085D               	movf	??_max7219_writeChar,w
  4953  0FF9  00F3               	movwf	___max7219_write@data
  4954  0FFA  085E               	movf	??_max7219_writeChar+1,w
  4955  0FFB  00F4               	movwf	___max7219_write@data+1
  4956  0FFC  318E  26C6  318F   	fcall	___max7219_write
  4957  0FFF                     l60:	
  4958  0FFF  0008               	return
  4959  1000                     __end_of_max7219_writeChar:	
  4960                           
  4961                           	psect	text23
  4962  0EC6                     __ptext23:	
  4963 ;; *************** function ___max7219_write *****************
  4964 ;; Defined at:
  4965 ;;		line 70 in file "./max7219.h"
  4966 ;; Parameters:    Size  Location     Type
  4967 ;;  address         2    1[COMMON] unsigned int 
  4968 ;;  data            2    3[COMMON] unsigned int 
  4969 ;; Auto vars:     Size  Location     Type
  4970 ;;  i               2   11[COMMON] unsigned int 
  4971 ;;  dataSend        2    9[COMMON] unsigned int 
  4972 ;;  j               2    0        unsigned int 
  4973 ;; Return value:  Size  Location     Type
  4974 ;;                  1    wreg      void 
  4975 ;; Registers used:
  4976 ;;		wreg, status,2, status,0
  4977 ;; Tracked objects:
  4978 ;;		On entry : 0/0
  4979 ;;		On exit  : 0/0
  4980 ;;		Unchanged: 0/0
  4981 ;; Data sizes:     COMMON   BANK0   BANK1   BANK2
  4982 ;;      Params:         4       0       0       0
  4983 ;;      Locals:         4       0       0       0
  4984 ;;      Temps:          4       0       0       0
  4985 ;;      Totals:        12       0       0       0
  4986 ;;Total ram usage:       12 bytes
  4987 ;; Hardware stack levels used:    1
  4988 ;; Hardware stack levels required when called:    1
  4989 ;; This function calls:
  4990 ;;		Nothing
  4991 ;; This function is called by:
  4992 ;;		_max7219_config
  4993 ;;		_max7219_writeChar
  4994 ;;		_max7219_brillo
  4995 ;; This function uses a non-reentrant model
  4996 ;;
  4997                           
  4998                           
  4999                           ;psect for function ___max7219_write
  5000  0EC6                     ___max7219_write:	
  5001  0EC6                     l1542:	
  5002                           ;incstack = 0
  5003                           ; Regs used in ___max7219_write: [wreg+status,2+status,0]
  5004                           
  5005                           
  5006                           ;./max7219.h: 72:     unsigned int dataSend = 0;
  5007  0EC6  01F9               	clrf	___max7219_write@dataSend
  5008  0EC7  01FA               	clrf	___max7219_write@dataSend+1
  5009  0EC8                     l1544:	
  5010                           
  5011                           ;./max7219.h: 73:     dataSend = address;
  5012  0EC8  0872               	movf	___max7219_write@address+1,w
  5013  0EC9  00FA               	movwf	___max7219_write@dataSend+1
  5014  0ECA  0871               	movf	___max7219_write@address,w
  5015  0ECB  00F9               	movwf	___max7219_write@dataSend
  5016  0ECC                     l1546:	
  5017                           
  5018                           ;./max7219.h: 74:     dataSend <<= 8;
  5019  0ECC  3008               	movlw	8
  5020  0ECD                     u925:	
  5021  0ECD  35F9               	lslf	___max7219_write@dataSend,f
  5022  0ECE  0DFA               	rlf	___max7219_write@dataSend+1,f
  5023  0ECF  0B89               	decfsz	9,f
  5024  0ED0  2ECD               	goto	u925
  5025  0ED1                     l1548:	
  5026                           
  5027                           ;./max7219.h: 75:     dataSend += data;
  5028  0ED1  0873               	movf	___max7219_write@data,w
  5029  0ED2  07F9               	addwf	___max7219_write@dataSend,f
  5030  0ED3  0874               	movf	___max7219_write@data+1,w
  5031  0ED4  3DFA               	addwfc	___max7219_write@dataSend+1,f
  5032  0ED5                     l1550:	
  5033                           
  5034                           ;./max7219.h: 76:     dataSend &= 0x0FFF;
  5035  0ED5  30FF               	movlw	255
  5036  0ED6  05F9               	andwf	___max7219_write@dataSend,f
  5037  0ED7  300F               	movlw	15
  5038  0ED8  05FA               	andwf	___max7219_write@dataSend+1,f
  5039  0ED9                     l1552:	
  5040                           
  5041                           ;./max7219.h: 77:     LATCbits.LATC2 = 0;
  5042  0ED9  0022               	movlb	2	; select bank2
  5043  0EDA  110E               	bcf	14,2	;volatile
  5044  0EDB                     l1554:	
  5045                           
  5046                           ;./max7219.h: 78:     for (i = 16; i > 0; i--) {
  5047  0EDB  3010               	movlw	16
  5048  0EDC  00FB               	movwf	___max7219_write@i
  5049  0EDD  3000               	movlw	0
  5050  0EDE  00FC               	movwf	___max7219_write@i+1
  5051  0EDF                     l1560:	
  5052                           
  5053                           ;./max7219.h: 79:         if (dataSend & (1 << (i - 1))) {
  5054  0EDF  3001               	movlw	1
  5055  0EE0  00F5               	movwf	??___max7219_write
  5056  0EE1  3000               	movlw	0
  5057  0EE2  00F6               	movwf	??___max7219_write+1
  5058  0EE3  087B               	movf	___max7219_write@i,w
  5059  0EE4  3EFF               	addlw	255
  5060  0EE5  0A89               	incf	9,f
  5061  0EE6  2EE9               	goto	u934
  5062  0EE7                     u935:	
  5063  0EE7  35F5               	lslf	??___max7219_write,f
  5064  0EE8  0DF6               	rlf	??___max7219_write+1,f
  5065  0EE9                     u934:	
  5066  0EE9  0B89               	decfsz	9,f
  5067  0EEA  2EE7               	goto	u935
  5068  0EEB  0879               	movf	___max7219_write@dataSend,w
  5069  0EEC  0575               	andwf	??___max7219_write,w
  5070  0EED  00F7               	movwf	??___max7219_write+2
  5071  0EEE  087A               	movf	___max7219_write@dataSend+1,w
  5072  0EEF  0576               	andwf	??___max7219_write+1,w
  5073  0EF0  00F8               	movwf	??___max7219_write+3
  5074  0EF1  0877               	movf	??___max7219_write+2,w
  5075  0EF2  0478               	iorwf	??___max7219_write+3,w
  5076  0EF3  1903               	btfsc	3,2
  5077  0EF4  2EF6               	goto	u941
  5078  0EF5  2EF7               	goto	u940
  5079  0EF6                     u941:	
  5080  0EF6  2EF9               	goto	l47
  5081  0EF7                     u940:	
  5082  0EF7                     l1562:	
  5083                           
  5084                           ;./max7219.h: 80:             LATCbits.LATC1 = 1;
  5085  0EF7  148E               	bsf	14,1	;volatile
  5086                           
  5087                           ;./max7219.h: 81:         } else {
  5088  0EF8  2EFA               	goto	l48
  5089  0EF9                     l47:	
  5090                           
  5091                           ;./max7219.h: 82:             LATCbits.LATC1 = 0;
  5092  0EF9  108E               	bcf	14,1	;volatile
  5093  0EFA                     l48:	
  5094                           ;./max7219.h: 83:         }
  5095                           
  5096                           
  5097                           ;./max7219.h: 84:         LATCbits.LATC3 = 1;
  5098  0EFA  158E               	bsf	14,3	;volatile
  5099                           
  5100                           ;./max7219.h: 85:         LATCbits.LATC3 = 0;
  5101  0EFB  118E               	bcf	14,3	;volatile
  5102  0EFC                     l1564:	
  5103                           
  5104                           ;./max7219.h: 86:     }
  5105  0EFC  3001               	movlw	1
  5106  0EFD  02FB               	subwf	___max7219_write@i,f
  5107  0EFE  3000               	movlw	0
  5108  0EFF  3BFC               	subwfb	___max7219_write@i+1,f
  5109  0F00                     l1566:	
  5110  0F00  087B               	movf	___max7219_write@i,w
  5111  0F01  047C               	iorwf	___max7219_write@i+1,w
  5112  0F02  1D03               	btfss	3,2
  5113  0F03  2F05               	goto	u951
  5114  0F04  2F06               	goto	u950
  5115  0F05                     u951:	
  5116  0F05  2EDF               	goto	l1560
  5117  0F06                     u950:	
  5118  0F06                     l46:	
  5119                           
  5120                           ;./max7219.h: 87:     LATCbits.LATC2 = 1;
  5121  0F06  150E               	bsf	14,2	;volatile
  5122  0F07                     l49:	
  5123  0F07  0008               	return
  5124  0F08                     __end_of___max7219_write:	
  5125                           
  5126                           	psect	text24
  5127  071F                     __ptext24:	
  5128 ;; *************** function _max7219_points *****************
  5129 ;; Defined at:
  5130 ;;		line 130 in file "./max7219.h"
  5131 ;; Parameters:    Size  Location     Type
  5132 ;;  points          2    1[COMMON] unsigned int 
  5133 ;;  nivel           2    3[COMMON] unsigned int 
  5134 ;; Auto vars:     Size  Location     Type
  5135 ;;  i               2    6[COMMON] unsigned int 
  5136 ;; Return value:  Size  Location     Type
  5137 ;;                  1    wreg      void 
  5138 ;; Registers used:
  5139 ;;		wreg, fsr1l, fsr1h, status,2, status,0
  5140 ;; Tracked objects:
  5141 ;;		On entry : 0/0
  5142 ;;		On exit  : 0/0
  5143 ;;		Unchanged: 0/0
  5144 ;; Data sizes:     COMMON   BANK0   BANK1   BANK2
  5145 ;;      Params:         4       0       0       0
  5146 ;;      Locals:         2       0       0       0
  5147 ;;      Temps:          1       0       0       0
  5148 ;;      Totals:         7       0       0       0
  5149 ;;Total ram usage:        7 bytes
  5150 ;; Hardware stack levels used:    1
  5151 ;; Hardware stack levels required when called:    1
  5152 ;; This function calls:
  5153 ;;		Nothing
  5154 ;; This function is called by:
  5155 ;;		_display_init
  5156 ;;		_proceso_run
  5157 ;;		_proceso_detenido
  5158 ;; This function uses a non-reentrant model
  5159 ;;
  5160                           
  5161                           
  5162                           ;psect for function _max7219_points
  5163  071F                     _max7219_points:	
  5164  071F                     l1586:	
  5165                           ;incstack = 0
  5166                           ; Regs used in _max7219_points: [wreg+fsr1l+fsr1h+status,2+status,0]
  5167                           
  5168  071F                     l1588:	
  5169                           
  5170                           ;./max7219.h: 132:     if (points == 0x01) {
  5171  071F  0371               	decf	max7219_points@points,w
  5172  0720  0472               	iorwf	max7219_points@points+1,w
  5173  0721  1D03               	btfss	3,2
  5174  0722  2F24               	goto	u1031
  5175  0723  2F25               	goto	u1030
  5176  0724                     u1031:	
  5177  0724  2F55               	goto	l1616
  5178  0725                     u1030:	
  5179  0725                     l1590:	
  5180                           
  5181                           ;./max7219.h: 133:         if (nivel == 0x01) {
  5182  0725  0373               	decf	max7219_points@nivel,w
  5183  0726  0474               	iorwf	max7219_points@nivel+1,w
  5184  0727  1D03               	btfss	3,2
  5185  0728  2F2A               	goto	u1041
  5186  0729  2F2B               	goto	u1040
  5187  072A                     u1041:	
  5188  072A  2F40               	goto	l1604
  5189  072B                     u1040:	
  5190  072B                     l1592:	
  5191                           
  5192                           ;./max7219.h: 134:             for (i = 0; i < 10; i++) {
  5193  072B  01F6               	clrf	max7219_points@i
  5194  072C  01F7               	clrf	max7219_points@i+1
  5195  072D                     l1598:	
  5196                           
  5197                           ;./max7219.h: 135:                 __digitos_1[i] |= 0x08;
  5198  072D  0876               	movf	max7219_points@i,w
  5199  072E  3E4B               	addlw	(low (___digitos_1| 0))& (0+255)
  5200  072F  0086               	movwf	6
  5201  0730  0187               	clrf	7
  5202  0731  1581               	bsf	1,3
  5203  0732                     l1600:	
  5204                           
  5205                           ;./max7219.h: 136:             }
  5206  0732  3001               	movlw	1
  5207  0733  07F6               	addwf	max7219_points@i,f
  5208  0734  3000               	movlw	0
  5209  0735  3DF7               	addwfc	max7219_points@i+1,f
  5210  0736                     l1602:	
  5211  0736  3000               	movlw	0
  5212  0737  0277               	subwf	max7219_points@i+1,w
  5213  0738  300A               	movlw	10
  5214  0739  1903               	skipnz
  5215  073A  0276               	subwf	max7219_points@i,w
  5216  073B  1C03               	skipc
  5217  073C  2F3E               	goto	u1051
  5218  073D  2F3F               	goto	u1050
  5219  073E                     u1051:	
  5220  073E  2F2D               	goto	l1598
  5221  073F                     u1050:	
  5222  073F  2F8A               	goto	l81
  5223  0740                     l1604:	
  5224                           
  5225                           ;./max7219.h: 138:             for (i = 0; i < 10; i++) {
  5226  0740  01F6               	clrf	max7219_points@i
  5227  0741  01F7               	clrf	max7219_points@i+1
  5228  0742                     l1610:	
  5229                           
  5230                           ;./max7219.h: 139:                 __digitos_2[i] |= 0x10;
  5231  0742  0876               	movf	max7219_points@i,w
  5232  0743  3E40               	addlw	(low (___digitos_2| 0))& (0+255)
  5233  0744  0086               	movwf	6
  5234  0745  0187               	clrf	7
  5235  0746  1601               	bsf	1,4
  5236  0747                     l1612:	
  5237                           
  5238                           ;./max7219.h: 140:             }
  5239  0747  3001               	movlw	1
  5240  0748  07F6               	addwf	max7219_points@i,f
  5241  0749  3000               	movlw	0
  5242  074A  3DF7               	addwfc	max7219_points@i+1,f
  5243  074B                     l1614:	
  5244  074B  3000               	movlw	0
  5245  074C  0277               	subwf	max7219_points@i+1,w
  5246  074D  300A               	movlw	10
  5247  074E  1903               	skipnz
  5248  074F  0276               	subwf	max7219_points@i,w
  5249  0750  1C03               	skipc
  5250  0751  2F53               	goto	u1061
  5251  0752  2F54               	goto	u1060
  5252  0753                     u1061:	
  5253  0753  2F42               	goto	l1610
  5254  0754                     u1060:	
  5255  0754  2F8A               	goto	l81
  5256  0755                     l1616:	
  5257                           
  5258                           ;./max7219.h: 143:         if (nivel == 0x01) {
  5259  0755  0373               	decf	max7219_points@nivel,w
  5260  0756  0474               	iorwf	max7219_points@nivel+1,w
  5261  0757  1D03               	btfss	3,2
  5262  0758  2F5A               	goto	u1071
  5263  0759  2F5B               	goto	u1070
  5264  075A                     u1071:	
  5265  075A  2F73               	goto	l1630
  5266  075B                     u1070:	
  5267  075B                     l1618:	
  5268                           
  5269                           ;./max7219.h: 144:             for (i = 0; i < 10; i++) {
  5270  075B  01F6               	clrf	max7219_points@i
  5271  075C  01F7               	clrf	max7219_points@i+1
  5272  075D                     l1624:	
  5273                           
  5274                           ;./max7219.h: 145:                 __digitos_1[i] &= ~(0x08);
  5275  075D  30F7               	movlw	247
  5276  075E  00F5               	movwf	??_max7219_points
  5277  075F  0876               	movf	max7219_points@i,w
  5278  0760  3E4B               	addlw	(low (___digitos_1| 0))& (0+255)
  5279  0761  0086               	movwf	6
  5280  0762  0187               	clrf	7
  5281  0763  0875               	movf	??_max7219_points,w
  5282  0764  0581               	andwf	1,f
  5283  0765                     l1626:	
  5284                           
  5285                           ;./max7219.h: 146:             }
  5286  0765  3001               	movlw	1
  5287  0766  07F6               	addwf	max7219_points@i,f
  5288  0767  3000               	movlw	0
  5289  0768  3DF7               	addwfc	max7219_points@i+1,f
  5290  0769                     l1628:	
  5291  0769  3000               	movlw	0
  5292  076A  0277               	subwf	max7219_points@i+1,w
  5293  076B  300A               	movlw	10
  5294  076C  1903               	skipnz
  5295  076D  0276               	subwf	max7219_points@i,w
  5296  076E  1C03               	skipc
  5297  076F  2F71               	goto	u1081
  5298  0770  2F72               	goto	u1080
  5299  0771                     u1081:	
  5300  0771  2F5D               	goto	l1624
  5301  0772                     u1080:	
  5302  0772  2F8A               	goto	l81
  5303  0773                     l1630:	
  5304                           
  5305                           ;./max7219.h: 148:             for (i = 0; i < 10; i++) {
  5306  0773  01F6               	clrf	max7219_points@i
  5307  0774  01F7               	clrf	max7219_points@i+1
  5308  0775                     l1636:	
  5309                           
  5310                           ;./max7219.h: 149:                 __digitos_2[i] &= ~(0x10);
  5311  0775  30EF               	movlw	239
  5312  0776  00F5               	movwf	??_max7219_points
  5313  0777  0876               	movf	max7219_points@i,w
  5314  0778  3E40               	addlw	(low (___digitos_2| 0))& (0+255)
  5315  0779  0086               	movwf	6
  5316  077A  0187               	clrf	7
  5317  077B  0875               	movf	??_max7219_points,w
  5318  077C  0581               	andwf	1,f
  5319  077D                     l1638:	
  5320                           
  5321                           ;./max7219.h: 150:             }
  5322  077D  3001               	movlw	1
  5323  077E  07F6               	addwf	max7219_points@i,f
  5324  077F  3000               	movlw	0
  5325  0780  3DF7               	addwfc	max7219_points@i+1,f
  5326  0781                     l1640:	
  5327  0781  3000               	movlw	0
  5328  0782  0277               	subwf	max7219_points@i+1,w
  5329  0783  300A               	movlw	10
  5330  0784  1903               	skipnz
  5331  0785  0276               	subwf	max7219_points@i,w
  5332  0786  1C03               	skipc
  5333  0787  2F89               	goto	u1091
  5334  0788  2F8A               	goto	u1090
  5335  0789                     u1091:	
  5336  0789  2F75               	goto	l1636
  5337  078A                     u1090:	
  5338  078A                     l81:	
  5339  078A  0008               	return
  5340  078B                     __end_of_max7219_points:	
  5341                           
  5342                           	psect	text25
  5343  0F53                     __ptext25:	
  5344 ;; *************** function ___awmod *****************
  5345 ;; Defined at:
  5346 ;;		line 5 in file "C:\Program Files (x86)\Microchip\xc8\v2.10\pic\sources\c99\common\awmod.c"
  5347 ;; Parameters:    Size  Location     Type
  5348 ;;  divisor         2    1[COMMON] int 
  5349 ;;  dividend        2    3[COMMON] int 
  5350 ;; Auto vars:     Size  Location     Type
  5351 ;;  sign            1    7[COMMON] unsigned char 
  5352 ;;  counter         1    6[COMMON] unsigned char 
  5353 ;; Return value:  Size  Location     Type
  5354 ;;                  2    1[COMMON] int 
  5355 ;; Registers used:
  5356 ;;		wreg, status,2, status,0
  5357 ;; Tracked objects:
  5358 ;;		On entry : 0/0
  5359 ;;		On exit  : 0/0
  5360 ;;		Unchanged: 0/0
  5361 ;; Data sizes:     COMMON   BANK0   BANK1   BANK2
  5362 ;;      Params:         4       0       0       0
  5363 ;;      Locals:         2       0       0       0
  5364 ;;      Temps:          1       0       0       0
  5365 ;;      Totals:         7       0       0       0
  5366 ;;Total ram usage:        7 bytes
  5367 ;; Hardware stack levels used:    1
  5368 ;; Hardware stack levels required when called:    1
  5369 ;; This function calls:
  5370 ;;		Nothing
  5371 ;; This function is called by:
  5372 ;;		_display_init
  5373 ;;		_proceso_subir_bajar_tiempo
  5374 ;;		_proceso_run
  5375 ;;		_proceso_detenido
  5376 ;; This function uses a non-reentrant model
  5377 ;;
  5378                           
  5379                           
  5380                           ;psect for function ___awmod
  5381  0F53                     ___awmod:	
  5382  0F53                     l1782:	
  5383                           ;incstack = 0
  5384                           ; Regs used in ___awmod: [wreg+status,2+status,0]
  5385                           
  5386  0F53  01F7               	clrf	___awmod@sign
  5387  0F54                     l1784:	
  5388  0F54  1FF4               	btfss	___awmod@dividend+1,7
  5389  0F55  2F57               	goto	u1301
  5390  0F56  2F58               	goto	u1300
  5391  0F57                     u1301:	
  5392  0F57  2F5F               	goto	l1790
  5393  0F58                     u1300:	
  5394  0F58                     l1786:	
  5395  0F58  09F3               	comf	___awmod@dividend,f
  5396  0F59  09F4               	comf	___awmod@dividend+1,f
  5397  0F5A  0AF3               	incf	___awmod@dividend,f
  5398  0F5B  1903               	skipnz
  5399  0F5C  0AF4               	incf	___awmod@dividend+1,f
  5400  0F5D                     l1788:	
  5401  0F5D  01F7               	clrf	___awmod@sign
  5402  0F5E  0AF7               	incf	___awmod@sign,f
  5403  0F5F                     l1790:	
  5404  0F5F  1FF2               	btfss	___awmod@divisor+1,7
  5405  0F60  2F62               	goto	u1311
  5406  0F61  2F63               	goto	u1310
  5407  0F62                     u1311:	
  5408  0F62  2F68               	goto	l1794
  5409  0F63                     u1310:	
  5410  0F63                     l1792:	
  5411  0F63  09F1               	comf	___awmod@divisor,f
  5412  0F64  09F2               	comf	___awmod@divisor+1,f
  5413  0F65  0AF1               	incf	___awmod@divisor,f
  5414  0F66  1903               	skipnz
  5415  0F67  0AF2               	incf	___awmod@divisor+1,f
  5416  0F68                     l1794:	
  5417  0F68  0871               	movf	___awmod@divisor,w
  5418  0F69  0472               	iorwf	___awmod@divisor+1,w
  5419  0F6A  1903               	btfsc	3,2
  5420  0F6B  2F6D               	goto	u1321
  5421  0F6C  2F6E               	goto	u1320
  5422  0F6D                     u1321:	
  5423  0F6D  2F97               	goto	l1812
  5424  0F6E                     u1320:	
  5425  0F6E                     l1796:	
  5426  0F6E  01F6               	clrf	___awmod@counter
  5427  0F6F  0AF6               	incf	___awmod@counter,f
  5428  0F70  2F7A               	goto	l1802
  5429  0F71                     l1798:	
  5430  0F71  3001               	movlw	1
  5431  0F72                     u1335:	
  5432  0F72  35F1               	lslf	___awmod@divisor,f
  5433  0F73  0DF2               	rlf	___awmod@divisor+1,f
  5434  0F74  0B89               	decfsz	9,f
  5435  0F75  2F72               	goto	u1335
  5436  0F76                     l1800:	
  5437  0F76  3001               	movlw	1
  5438  0F77  00F5               	movwf	??___awmod
  5439  0F78  0875               	movf	??___awmod,w
  5440  0F79  07F6               	addwf	___awmod@counter,f
  5441  0F7A                     l1802:	
  5442  0F7A  1FF2               	btfss	___awmod@divisor+1,7
  5443  0F7B  2F7D               	goto	u1341
  5444  0F7C  2F7E               	goto	u1340
  5445  0F7D                     u1341:	
  5446  0F7D  2F71               	goto	l1798
  5447  0F7E                     u1340:	
  5448  0F7E                     l1804:	
  5449  0F7E  0872               	movf	___awmod@divisor+1,w
  5450  0F7F  0274               	subwf	___awmod@dividend+1,w
  5451  0F80  1D03               	skipz
  5452  0F81  2F84               	goto	u1355
  5453  0F82  0871               	movf	___awmod@divisor,w
  5454  0F83  0273               	subwf	___awmod@dividend,w
  5455  0F84                     u1355:	
  5456  0F84  1C03               	skipc
  5457  0F85  2F87               	goto	u1351
  5458  0F86  2F88               	goto	u1350
  5459  0F87                     u1351:	
  5460  0F87  2F8C               	goto	l1808
  5461  0F88                     u1350:	
  5462  0F88                     l1806:	
  5463  0F88  0871               	movf	___awmod@divisor,w
  5464  0F89  02F3               	subwf	___awmod@dividend,f
  5465  0F8A  0872               	movf	___awmod@divisor+1,w
  5466  0F8B  3BF4               	subwfb	___awmod@dividend+1,f
  5467  0F8C                     l1808:	
  5468  0F8C  3001               	movlw	1
  5469  0F8D                     u1365:	
  5470  0F8D  36F2               	lsrf	___awmod@divisor+1,f
  5471  0F8E  0CF1               	rrf	___awmod@divisor,f
  5472  0F8F  0B89               	decfsz	9,f
  5473  0F90  2F8D               	goto	u1365
  5474  0F91                     l1810:	
  5475  0F91  3001               	movlw	1
  5476  0F92  02F6               	subwf	___awmod@counter,f
  5477  0F93  1D03               	btfss	3,2
  5478  0F94  2F96               	goto	u1371
  5479  0F95  2F97               	goto	u1370
  5480  0F96                     u1371:	
  5481  0F96  2F7E               	goto	l1804
  5482  0F97                     u1370:	
  5483  0F97                     l1812:	
  5484  0F97  0877               	movf	___awmod@sign,w
  5485  0F98  1903               	btfsc	3,2
  5486  0F99  2F9B               	goto	u1381
  5487  0F9A  2F9C               	goto	u1380
  5488  0F9B                     u1381:	
  5489  0F9B  2FA1               	goto	l1816
  5490  0F9C                     u1380:	
  5491  0F9C                     l1814:	
  5492  0F9C  09F3               	comf	___awmod@dividend,f
  5493  0F9D  09F4               	comf	___awmod@dividend+1,f
  5494  0F9E  0AF3               	incf	___awmod@dividend,f
  5495  0F9F  1903               	skipnz
  5496  0FA0  0AF4               	incf	___awmod@dividend+1,f
  5497  0FA1                     l1816:	
  5498  0FA1  0874               	movf	___awmod@dividend+1,w
  5499  0FA2  00F2               	movwf	?___awmod+1
  5500  0FA3  0873               	movf	___awmod@dividend,w
  5501  0FA4  00F1               	movwf	?___awmod
  5502  0FA5                     l572:	
  5503  0FA5  0008               	return
  5504  0FA6                     __end_of___awmod:	
  5505                           
  5506                           	psect	text26
  5507  078B                     __ptext26:	
  5508 ;; *************** function ___awdiv *****************
  5509 ;; Defined at:
  5510 ;;		line 5 in file "C:\Program Files (x86)\Microchip\xc8\v2.10\pic\sources\c99\common\awdiv.c"
  5511 ;; Parameters:    Size  Location     Type
  5512 ;;  divisor         2    1[COMMON] int 
  5513 ;;  dividend        2    3[COMMON] int 
  5514 ;; Auto vars:     Size  Location     Type
  5515 ;;  quotient        2    8[COMMON] int 
  5516 ;;  sign            1    7[COMMON] unsigned char 
  5517 ;;  counter         1    6[COMMON] unsigned char 
  5518 ;; Return value:  Size  Location     Type
  5519 ;;                  2    1[COMMON] int 
  5520 ;; Registers used:
  5521 ;;		wreg, status,2, status,0
  5522 ;; Tracked objects:
  5523 ;;		On entry : 0/0
  5524 ;;		On exit  : 0/0
  5525 ;;		Unchanged: 0/0
  5526 ;; Data sizes:     COMMON   BANK0   BANK1   BANK2
  5527 ;;      Params:         4       0       0       0
  5528 ;;      Locals:         4       0       0       0
  5529 ;;      Temps:          1       0       0       0
  5530 ;;      Totals:         9       0       0       0
  5531 ;;Total ram usage:        9 bytes
  5532 ;; Hardware stack levels used:    1
  5533 ;; Hardware stack levels required when called:    1
  5534 ;; This function calls:
  5535 ;;		Nothing
  5536 ;; This function is called by:
  5537 ;;		_display_init
  5538 ;;		_proceso_subir_bajar_tiempo
  5539 ;;		_proceso_run
  5540 ;;		_proceso_detenido
  5541 ;; This function uses a non-reentrant model
  5542 ;;
  5543                           
  5544                           
  5545                           ;psect for function ___awdiv
  5546  078B                     ___awdiv:	
  5547  078B                     l1738:	
  5548                           ;incstack = 0
  5549                           ; Regs used in ___awdiv: [wreg+status,2+status,0]
  5550                           
  5551  078B  01F7               	clrf	___awdiv@sign
  5552  078C                     l1740:	
  5553  078C  1FF2               	btfss	___awdiv@divisor+1,7
  5554  078D  2F8F               	goto	u1201
  5555  078E  2F90               	goto	u1200
  5556  078F                     u1201:	
  5557  078F  2F97               	goto	l1746
  5558  0790                     u1200:	
  5559  0790                     l1742:	
  5560  0790  09F1               	comf	___awdiv@divisor,f
  5561  0791  09F2               	comf	___awdiv@divisor+1,f
  5562  0792  0AF1               	incf	___awdiv@divisor,f
  5563  0793  1903               	skipnz
  5564  0794  0AF2               	incf	___awdiv@divisor+1,f
  5565  0795                     l1744:	
  5566  0795  01F7               	clrf	___awdiv@sign
  5567  0796  0AF7               	incf	___awdiv@sign,f
  5568  0797                     l1746:	
  5569  0797  1FF4               	btfss	___awdiv@dividend+1,7
  5570  0798  2F9A               	goto	u1211
  5571  0799  2F9B               	goto	u1210
  5572  079A                     u1211:	
  5573  079A  2FA4               	goto	l1752
  5574  079B                     u1210:	
  5575  079B                     l1748:	
  5576  079B  09F3               	comf	___awdiv@dividend,f
  5577  079C  09F4               	comf	___awdiv@dividend+1,f
  5578  079D  0AF3               	incf	___awdiv@dividend,f
  5579  079E  1903               	skipnz
  5580  079F  0AF4               	incf	___awdiv@dividend+1,f
  5581  07A0                     l1750:	
  5582  07A0  3001               	movlw	1
  5583  07A1  00F5               	movwf	??___awdiv
  5584  07A2  0875               	movf	??___awdiv,w
  5585  07A3  06F7               	xorwf	___awdiv@sign,f
  5586  07A4                     l1752:	
  5587  07A4  01F8               	clrf	___awdiv@quotient
  5588  07A5  01F9               	clrf	___awdiv@quotient+1
  5589  07A6                     l1754:	
  5590  07A6  0871               	movf	___awdiv@divisor,w
  5591  07A7  0472               	iorwf	___awdiv@divisor+1,w
  5592  07A8  1903               	btfsc	3,2
  5593  07A9  2FAB               	goto	u1221
  5594  07AA  2FAC               	goto	u1220
  5595  07AB                     u1221:	
  5596  07AB  2FDB               	goto	l1774
  5597  07AC                     u1220:	
  5598  07AC                     l1756:	
  5599  07AC  01F6               	clrf	___awdiv@counter
  5600  07AD  0AF6               	incf	___awdiv@counter,f
  5601  07AE  2FB8               	goto	l1762
  5602  07AF                     l1758:	
  5603  07AF  3001               	movlw	1
  5604  07B0                     u1235:	
  5605  07B0  35F1               	lslf	___awdiv@divisor,f
  5606  07B1  0DF2               	rlf	___awdiv@divisor+1,f
  5607  07B2  0B89               	decfsz	9,f
  5608  07B3  2FB0               	goto	u1235
  5609  07B4                     l1760:	
  5610  07B4  3001               	movlw	1
  5611  07B5  00F5               	movwf	??___awdiv
  5612  07B6  0875               	movf	??___awdiv,w
  5613  07B7  07F6               	addwf	___awdiv@counter,f
  5614  07B8                     l1762:	
  5615  07B8  1FF2               	btfss	___awdiv@divisor+1,7
  5616  07B9  2FBB               	goto	u1241
  5617  07BA  2FBC               	goto	u1240
  5618  07BB                     u1241:	
  5619  07BB  2FAF               	goto	l1758
  5620  07BC                     u1240:	
  5621  07BC                     l1764:	
  5622  07BC  3001               	movlw	1
  5623  07BD                     u1255:	
  5624  07BD  35F8               	lslf	___awdiv@quotient,f
  5625  07BE  0DF9               	rlf	___awdiv@quotient+1,f
  5626  07BF  0B89               	decfsz	9,f
  5627  07C0  2FBD               	goto	u1255
  5628  07C1  0872               	movf	___awdiv@divisor+1,w
  5629  07C2  0274               	subwf	___awdiv@dividend+1,w
  5630  07C3  1D03               	skipz
  5631  07C4  2FC7               	goto	u1265
  5632  07C5  0871               	movf	___awdiv@divisor,w
  5633  07C6  0273               	subwf	___awdiv@dividend,w
  5634  07C7                     u1265:	
  5635  07C7  1C03               	skipc
  5636  07C8  2FCA               	goto	u1261
  5637  07C9  2FCB               	goto	u1260
  5638  07CA                     u1261:	
  5639  07CA  2FD0               	goto	l1770
  5640  07CB                     u1260:	
  5641  07CB                     l1766:	
  5642  07CB  0871               	movf	___awdiv@divisor,w
  5643  07CC  02F3               	subwf	___awdiv@dividend,f
  5644  07CD  0872               	movf	___awdiv@divisor+1,w
  5645  07CE  3BF4               	subwfb	___awdiv@dividend+1,f
  5646  07CF                     l1768:	
  5647  07CF  1478               	bsf	___awdiv@quotient,0
  5648  07D0                     l1770:	
  5649  07D0  3001               	movlw	1
  5650  07D1                     u1275:	
  5651  07D1  36F2               	lsrf	___awdiv@divisor+1,f
  5652  07D2  0CF1               	rrf	___awdiv@divisor,f
  5653  07D3  0B89               	decfsz	9,f
  5654  07D4  2FD1               	goto	u1275
  5655  07D5                     l1772:	
  5656  07D5  3001               	movlw	1
  5657  07D6  02F6               	subwf	___awdiv@counter,f
  5658  07D7  1D03               	btfss	3,2
  5659  07D8  2FDA               	goto	u1281
  5660  07D9  2FDB               	goto	u1280
  5661  07DA                     u1281:	
  5662  07DA  2FBC               	goto	l1764
  5663  07DB                     u1280:	
  5664  07DB                     l1774:	
  5665  07DB  0877               	movf	___awdiv@sign,w
  5666  07DC  1903               	btfsc	3,2
  5667  07DD  2FDF               	goto	u1291
  5668  07DE  2FE0               	goto	u1290
  5669  07DF                     u1291:	
  5670  07DF  2FE5               	goto	l1778
  5671  07E0                     u1290:	
  5672  07E0                     l1776:	
  5673  07E0  09F8               	comf	___awdiv@quotient,f
  5674  07E1  09F9               	comf	___awdiv@quotient+1,f
  5675  07E2  0AF8               	incf	___awdiv@quotient,f
  5676  07E3  1903               	skipnz
  5677  07E4  0AF9               	incf	___awdiv@quotient+1,f
  5678  07E5                     l1778:	
  5679  07E5  0879               	movf	___awdiv@quotient+1,w
  5680  07E6  00F2               	movwf	?___awdiv+1
  5681  07E7  0878               	movf	___awdiv@quotient,w
  5682  07E8  00F1               	movwf	?___awdiv
  5683  07E9                     l559:	
  5684  07E9  0008               	return
  5685  07EA                     __end_of___awdiv:	
  5686                           
  5687                           	psect	intentry
  5688  0004                     __pintentry:	
  5689 ;; *************** function _myISR *****************
  5690 ;; Defined at:
  5691 ;;		line 248 in file "main.c"
  5692 ;; Parameters:    Size  Location     Type
  5693 ;;		None
  5694 ;; Auto vars:     Size  Location     Type
  5695 ;;		None
  5696 ;; Return value:  Size  Location     Type
  5697 ;;                  1    wreg      void 
  5698 ;; Registers used:
  5699 ;;		wreg, status,2, status,0
  5700 ;; Tracked objects:
  5701 ;;		On entry : 0/0
  5702 ;;		On exit  : 0/0
  5703 ;;		Unchanged: 0/0
  5704 ;; Data sizes:     COMMON   BANK0   BANK1   BANK2
  5705 ;;      Params:         0       0       0       0
  5706 ;;      Locals:         0       0       0       0
  5707 ;;      Temps:          1       0       0       0
  5708 ;;      Totals:         1       0       0       0
  5709 ;;Total ram usage:        1 bytes
  5710 ;; Hardware stack levels used:    1
  5711 ;; This function calls:
  5712 ;;		Nothing
  5713 ;; This function is called by:
  5714 ;;		Interrupt level 1
  5715 ;; This function uses a non-reentrant model
  5716 ;;
  5717                           
  5718  0004                     _myISR:	
  5719                           
  5720                           ;incstack = 0
  5721  0004  147E               	bsf	int$flags,0	;set compiler interrupt flag (level 1)
  5722                           
  5723                           ; Regs used in _myISR: [wreg+status,2+status,0]
  5724  0005  3180               	pagesel	$
  5725  0006                     i1l2200:	
  5726                           
  5727                           ;main.c: 249:     static int f = 0;;main.c: 250:     if (INTCONbits.TMR0IE && INTCONbits
      +                          .TMR0IF) {
  5728  0006  1E8B               	btfss	11,5	;volatile
  5729  0007  2809               	goto	u179_21
  5730  0008  280A               	goto	u179_20
  5731  0009                     u179_21:	
  5732  0009  2836               	goto	i1l219
  5733  000A                     u179_20:	
  5734  000A                     i1l2202:	
  5735  000A  1D0B               	btfss	11,2	;volatile
  5736  000B  280D               	goto	u180_21
  5737  000C  280E               	goto	u180_20
  5738  000D                     u180_21:	
  5739  000D  2836               	goto	i1l219
  5740  000E                     u180_20:	
  5741  000E                     i1l2204:	
  5742                           
  5743                           ;main.c: 251:         TMR0 = 0;
  5744  000E  0020               	movlb	0	; select bank0
  5745  000F  0195               	clrf	21	;volatile
  5746  0010                     i1l2206:	
  5747                           
  5748                           ;main.c: 252:         INTCONbits.TMR0IF = 0;
  5749  0010  110B               	bcf	11,2	;volatile
  5750  0011                     i1l2208:	
  5751                           
  5752                           ;main.c: 253:         if (++f >= 125) {
  5753  0011  3001               	movlw	1
  5754  0012  07A4               	addwf	myISR@f,f
  5755  0013  3000               	movlw	0
  5756  0014  3DA5               	addwfc	myISR@f+1,f
  5757  0015  0825               	movf	myISR@f+1,w
  5758  0016  3A80               	xorlw	128
  5759  0017  00F0               	movwf	??_myISR
  5760  0018  3080               	movlw	128
  5761  0019  0270               	subwf	??_myISR,w
  5762  001A  1D03               	skipz
  5763  001B  281E               	goto	u181_25
  5764  001C  307D               	movlw	125
  5765  001D  0224               	subwf	myISR@f,w
  5766  001E                     u181_25:	
  5767  001E  1C03               	skipc
  5768  001F  2821               	goto	u181_21
  5769  0020  2822               	goto	u181_20
  5770  0021                     u181_21:	
  5771  0021  2836               	goto	i1l219
  5772  0022                     u181_20:	
  5773  0022                     i1l2210:	
  5774                           
  5775                           ;main.c: 254:             f = 0;
  5776  0022  0020               	movlb	0	; select bank0
  5777  0023  01A4               	clrf	myISR@f
  5778  0024  01A5               	clrf	myISR@f+1
  5779  0025                     i1l2212:	
  5780                           
  5781                           ;main.c: 255:             if (++segundos_temp == 60) {
  5782  0025  3001               	movlw	1
  5783  0026  07B2               	addwf	_segundos_temp,f
  5784  0027  3000               	movlw	0
  5785  0028  3DB3               	addwfc	_segundos_temp+1,f
  5786  0029  303C               	movlw	60
  5787  002A  0632               	xorwf	_segundos_temp,w
  5788  002B  0433               	iorwf	_segundos_temp+1,w
  5789  002C  1D03               	btfss	3,2
  5790  002D  282F               	goto	u182_21
  5791  002E  2830               	goto	u182_20
  5792  002F                     u182_21:	
  5793  002F  2836               	goto	i1l219
  5794  0030                     u182_20:	
  5795  0030                     i1l2214:	
  5796                           
  5797                           ;main.c: 256:                 minutos_temp++;
  5798  0030  3001               	movlw	1
  5799  0031  07B4               	addwf	_minutos_temp,f
  5800  0032  3000               	movlw	0
  5801  0033  3DB5               	addwfc	_minutos_temp+1,f
  5802  0034                     i1l2216:	
  5803                           
  5804                           ;main.c: 257:                 segundos_temp = 0;
  5805  0034  01B2               	clrf	_segundos_temp
  5806  0035  01B3               	clrf	_segundos_temp+1
  5807  0036                     i1l219:	
  5808  0036  107E               	bcf	int$flags,0	;clear compiler interrupt flag (level 1)
  5809  0037  0009               	retfie
  5810  0038                     __end_of_myISR:	
  5811  007E                     btemp	set	126	;btemp
  5812  007E                     int$flags	set	126
  5813  007E                     wtemp0	set	126


Data Sizes:
    Strings     0
    Constant    0
    Data        22
    BSS         32
    Persistent  32
    Stack       0

Auto Spaces:
    Space          Size  Autos    Used
    COMMON           14     13      13
    BANK0            80     19      73
    BANK1            80      0       0
    BANK2            80      0       0

Pointer List with Targets:

    None.

Critical Paths under _main in COMMON

    ___lwdiv->___lwmod
    _max7219_config->___max7219_write
    _max7219_brillo->___max7219_write
    _max7219_writeChar->___max7219_write

Critical Paths under _myISR in COMMON

    None.

Critical Paths under _main in BANK0

    _main->_update_eeprom
    _update_eeprom->_max7219_writeChar
    _proceso_subir_bajar_tiempo->_max7219_writeChar
    _proceso_run->_max7219_writeChar
    _proceso_detenido->_max7219_writeChar
    _display_init->_max7219_writeChar
    _max7219_writeChar->___lwdiv

Critical Paths under _myISR in BANK0

    None.

Critical Paths under _main in BANK1

    None.

Critical Paths under _myISR in BANK1

    None.

Critical Paths under _main in BANK2

    None.

Critical Paths under _myISR in BANK2

    None.

Call Graph Tables:

 ---------------------------------------------------------------------------------
 (Depth) Function   	        Calls       Base Space   Used Autos Params    Refs
 ---------------------------------------------------------------------------------
 (0) _main                                                 0     0      0   68640
                       _display_init
                       _input_config
                     _max7219_brillo
                     _max7219_config
                  _oscillator_config
                      _output_config
                   _proceso_detenido
                        _proceso_run
         _proceso_subir_bajar_tiempo
                     _timer_0_config
                      _update_eeprom
 ---------------------------------------------------------------------------------
 (1) _update_eeprom                                       10    10      0   11383
                                              9 BANK0     10    10      0
                            ___lwdiv
                            ___lwmod
                        _eeprom_read
                       _eeprom_write
                  _max7219_writeChar
 ---------------------------------------------------------------------------------
 (2) _eeprom_read                                          4     4      0      22
                                              1 COMMON     4     4      0
 ---------------------------------------------------------------------------------
 (2) ___lwmod                                              6     2      4    1983
                                              1 COMMON     6     2      4
 ---------------------------------------------------------------------------------
 (2) ___lwdiv                                              8     4      4    1074
                                              7 COMMON     5     1      4
                                              0 BANK0      3     3      0
                            ___lwmod (ARG)
 ---------------------------------------------------------------------------------
 (1) _timer_0_config                                       0     0      0       0
 ---------------------------------------------------------------------------------
 (1) _proceso_subir_bajar_tiempo                           0     0      0   12074
                            ___awdiv
                            ___awmod
               _input_pulsador_bajar
               _input_pulsador_subir
                  _max7219_writeChar
 ---------------------------------------------------------------------------------
 (2) _input_pulsador_subir                                 3     1      2       0
                                              1 COMMON     3     1      2
 ---------------------------------------------------------------------------------
 (2) _input_pulsador_bajar                                 3     1      2       0
                                              1 COMMON     3     1      2
 ---------------------------------------------------------------------------------
 (1) _proceso_run                                          0     0      0   13803
                            ___awdiv
                            ___awmod
                     _max7219_points
                  _max7219_writeChar
                       _output_relay
                    _timer_0_disable
 ---------------------------------------------------------------------------------
 (2) _timer_0_disable                                      0     0      0       0
 ---------------------------------------------------------------------------------
 (1) _proceso_detenido                                     1     1      0   14607
                                              9 BANK0      1     1      0
                            ___awdiv
                            ___awmod
                       _eeprom_write
                  _input_pulsador_ok
                     _max7219_points
                  _max7219_writeChar
                       _output_relay
                     _timer_0_enable
 ---------------------------------------------------------------------------------
 (2) _timer_0_enable                                       0     0      0       0
 ---------------------------------------------------------------------------------
 (2) _input_pulsador_ok                                    3     1      2       0
                                              1 COMMON     3     1      2
 ---------------------------------------------------------------------------------
 (2) _eeprom_write                                         4     3      1     804
                                              1 COMMON     4     3      1
 ---------------------------------------------------------------------------------
 (1) _output_config                                        0     0      0       0
 ---------------------------------------------------------------------------------
 (1) _oscillator_config                                    0     0      0       0
 ---------------------------------------------------------------------------------
 (1) _max7219_config                                       0     0      0    1356
                    ___max7219_write
 ---------------------------------------------------------------------------------
 (1) _max7219_brillo                                       2     0      2    1476
                                              0 BANK0      2     0      2
                    ___max7219_write
 ---------------------------------------------------------------------------------
 (1) _input_config                                         0     0      0       0
 ---------------------------------------------------------------------------------
 (1) _display_init                                         5     5      0   13941
                                              9 BANK0      5     5      0
                            ___awdiv
                            ___awmod
                     _max7219_points
                  _max7219_writeChar
                       _output_relay
 ---------------------------------------------------------------------------------
 (2) _output_relay                                         2     0      2     478
                                              1 COMMON     2     0      2
 ---------------------------------------------------------------------------------
 (2) _max7219_writeChar                                    6     2      4    7222
                                              3 BANK0      6     2      4
                            ___awdiv (ARG)
                            ___awmod (ARG)
                            ___lwdiv (ARG)
                            ___lwmod (ARG)
                    ___max7219_write
 ---------------------------------------------------------------------------------
 (3) ___max7219_write                                     14    10      4    1356
                                              1 COMMON    12     8      4
 ---------------------------------------------------------------------------------
 (2) _max7219_points                                       7     3      4    1251
                                              1 COMMON     7     3      4
 ---------------------------------------------------------------------------------
 (2) ___awmod                                              7     3      4    2424
                                              1 COMMON     7     3      4
 ---------------------------------------------------------------------------------
 (2) ___awdiv                                              9     5      4    2428
                                              1 COMMON     9     5      4
 ---------------------------------------------------------------------------------
 Estimated maximum stack depth 3
 ---------------------------------------------------------------------------------
 (Depth) Function   	        Calls       Base Space   Used Autos Params    Refs
 ---------------------------------------------------------------------------------
 (4) _myISR                                                1     1      0       0
                                              0 COMMON     1     1      0
 ---------------------------------------------------------------------------------
 Estimated maximum stack depth 4
 ---------------------------------------------------------------------------------

 Call Graph Graphs:

 _main (ROOT)
   _display_init
     ___awdiv
     ___awmod
     _max7219_points
     _max7219_writeChar
       ___awdiv (ARG)
       ___awmod (ARG)
       ___lwdiv (ARG)
         ___lwmod (ARG)
       ___lwmod (ARG)
       ___max7219_write (ARG)
     _output_relay
   _input_config
   _max7219_brillo
     ___max7219_write
   _max7219_config
     ___max7219_write
   _oscillator_config
   _output_config
   _proceso_detenido
     ___awdiv
     ___awmod
     _eeprom_write
     _input_pulsador_ok
     _max7219_points
     _max7219_writeChar
       ___awdiv (ARG)
       ___awmod (ARG)
       ___lwdiv (ARG)
         ___lwmod (ARG)
       ___lwmod (ARG)
       ___max7219_write (ARG)
     _output_relay
     _timer_0_enable
   _proceso_run
     ___awdiv
     ___awmod
     _max7219_points
     _max7219_writeChar
       ___awdiv (ARG)
       ___awmod (ARG)
       ___lwdiv (ARG)
         ___lwmod (ARG)
       ___lwmod (ARG)
       ___max7219_write (ARG)
     _output_relay
     _timer_0_disable
   _proceso_subir_bajar_tiempo
     ___awdiv
     ___awmod
     _input_pulsador_bajar
     _input_pulsador_subir
     _max7219_writeChar
       ___awdiv (ARG)
       ___awmod (ARG)
       ___lwdiv (ARG)
         ___lwmod (ARG)
       ___lwmod (ARG)
       ___max7219_write (ARG)
   _timer_0_config
   _update_eeprom
     ___lwdiv
       ___lwmod (ARG)
     ___lwmod
     _eeprom_read
     _eeprom_write
     _max7219_writeChar
       ___awdiv (ARG)
       ___awmod (ARG)
       ___lwdiv (ARG)
         ___lwmod (ARG)
       ___lwmod (ARG)
       ___max7219_write (ARG)

 _myISR (ROOT)

 Address spaces:
Name               Size   Autos  Total    Cost      Usage
BIGRAM              F0      0       0       0        0.0%
EEDATA             100      0       0       0        0.0%
NULL                 0      0       0       0        0.0%
CODE                 0      0       0       0        0.0%
BITCOMMON            E      0       0       1        0.0%
BITSFR0              0      0       0       1        0.0%
SFR0                 0      0       0       1        0.0%
COMMON               E      D       D       2       92.9%
BITSFR1              0      0       0       2        0.0%
SFR1                 0      0       0       2        0.0%
BITSFR2              0      0       0       3        0.0%
SFR2                 0      0       0       3        0.0%
STACK                0      0       0       3        0.0%
BITSFR3              0      0       0       4        0.0%
SFR3                 0      0       0       4        0.0%
ABS                  0      0      56       4        0.0%
BITBANK0            50      0       0       5        0.0%
BITSFR4              0      0       0       5        0.0%
SFR4                 0      0       0       5        0.0%
BANK0               50     13      49       6       91.3%
BITSFR5              0      0       0       6        0.0%
SFR5                 0      0       0       6        0.0%
BITBANK1            50      0       0       7        0.0%
BITSFR6              0      0       0       7        0.0%
SFR6                 0      0       0       7        0.0%
BANK1               50      0       0       8        0.0%
BITSFR7              0      0       0       8        0.0%
SFR7                 0      0       0       8        0.0%
BITBANK2            50      0       0       9        0.0%
BITSFR8              0      0       0       9        0.0%
SFR8                 0      0       0       9        0.0%
BANK2               50      0       0      10        0.0%
BITSFR9              0      0       0      10        0.0%
SFR9                 0      0       0      10        0.0%
BITSFR10             0      0       0      11        0.0%
SFR10                0      0       0      11        0.0%
DATA                 0      0      56      11        0.0%
BITSFR11             0      0       0      12        0.0%
SFR11                0      0       0      12        0.0%
BITSFR12             0      0       0      13        0.0%
SFR12                0      0       0      13        0.0%
BITSFR13             0      0       0      14        0.0%
SFR13                0      0       0      14        0.0%
BITSFR14             0      0       0      15        0.0%
SFR14                0      0       0      15        0.0%
BITSFR15             0      0       0      16        0.0%
SFR15                0      0       0      16        0.0%
BITSFR16             0      0       0      17        0.0%
SFR16                0      0       0      17        0.0%
BITSFR17             0      0       0      18        0.0%
SFR17                0      0       0      18        0.0%
BITSFR18             0      0       0      19        0.0%
SFR18                0      0       0      19        0.0%
BITSFR19             0      0       0      20        0.0%
SFR19                0      0       0      20        0.0%
BITSFR20             0      0       0      21        0.0%
SFR20                0      0       0      21        0.0%
BITSFR21             0      0       0      22        0.0%
SFR21                0      0       0      22        0.0%
BITSFR22             0      0       0      23        0.0%
SFR22                0      0       0      23        0.0%
BITSFR23             0      0       0      24        0.0%
SFR23                0      0       0      24        0.0%
BITSFR24             0      0       0      25        0.0%
SFR24                0      0       0      25        0.0%
BITSFR25             0      0       0      26        0.0%
SFR25                0      0       0      26        0.0%
BITSFR26             0      0       0      27        0.0%
SFR26                0      0       0      27        0.0%
BITSFR27             0      0       0      28        0.0%
SFR27                0      0       0      28        0.0%
BITSFR28             0      0       0      29        0.0%
SFR28                0      0       0      29        0.0%
BITSFR29             0      0       0      30        0.0%
SFR29                0      0       0      30        0.0%
BITSFR30             0      0       0      31        0.0%
SFR30                0      0       0      31        0.0%
BITSFR31             0      0       0      32        0.0%
SFR31                0      0       0      32        0.0%


Microchip Technology PIC Macro Assembler V2.10 build 88905656 
Symbol Table                                                                                   Mon Apr 13 11:06:50 2020

                   ??_timer_0_enable 0071                     ??_timer_0_config 0071  
                                  _k 0020                        _update_eeprom 0052  
             ??_input_pulsador_subir 0073                    ??_timer_0_disable 0071  
                        __CFG_CP$OFF 0000                                   l60 0FFF  
                                 l52 0F52                                   l46 0F06  
                                 l47 0EF9                                   l48 0EFA  
                                 l64 0D87                                   l81 078A  
                                 l49 0F07                                   l91 0DF9  
                                 l84 0D1B                                   l99 0DD3  
                       ___awdiv@sign 0077  __size_of_proceso_subir_bajar_tiempo 008D  
                     _max7219_config 0F08                       _max7219_brillo 0D6D  
                     _max7219_points 071F                                  l111 0D41  
                                l200 043A                                  l107 0DAD  
                                l117 0D3A                                  l152 0D4A  
                                l209 0691                                  l161 0D27  
                                l402 0E23                                  l155 0D57  
                                l172 059E                                  l158 0D21  
                                l190 071E                                  l183 0287  
                                l193 02C6                                  l376 0D59  
                                l378 0D6C                                  l395 0DFB  
                                l572 0FA5                                  l396 0DFB  
                                l559 07E9                                  l399 0E14  
                                l686 0EC5                                  l696 0E88  
                      ?_display_init 0070                         __CFG_CPD$OFF 0000  
                                u940 0EF7                                  u941 0EF6  
                                u925 0ECD                                  u950 0F06  
                                u934 0EE9                                  u951 0F05  
                                u935 0EE7                                  u960 0FAD  
                                u961 0FAC                                  u970 0FB6  
                                u971 0FB5                                  u980 0FBF  
                                u981 0FBE                                  u990 0FC5  
                                u991 0FC4                         ___awmod@sign 0077  
                       __CFG_BORV$LO 0000                                  wreg 0009  
                       __CFG_IESO$ON 0000                         __CFG_LVP$OFF 0000  
                               l2000 022D                                 l2002 023E  
                               l2100 02F1                                 l2012 027E  
                               l2004 024E                                 l2030 0455  
                               l2110 03A7                                 l2102 0325  
                               l2006 0265                                 l2040 0480  
                               l2032 045A                                 l2024 0442  
                               l2016 043B                                 l2112 03AE  
                               l2104 0330                                 l2008 026E  
                               l2050 0576                                 l2034 0467  
                               l2018 043E                                 l2130 03DB  
                               l2122 03CE                                 l2114 03B7  
                               l2106 033A                                 l2060 0598  
                               l2052 057F                                 l2044 0489  
                               l2036 0470                                 l2028 0447  
                               l2140 05A8                                 l2132 03F2  
                               l2124 03D4                                 l2108 03A4  
                               l2046 049A                                 l2142 05BA  
                               l2134 040A                                 l2126 03D7  
                               l2118 03C5                                 l2070 06C0  
                               l2062 0692                                 l1600 0732  
                               l2056 058F                                 l2048 056F  
                               l2160 05FC                                 l2152 05DF  
                               l2144 05BD                                 l2136 0422  
                               l2128 03D9                                 l2080 0706  
                               l2064 069B                                 l2072 06D8  
                               l1610 0742                                 l1602 0736  
                               l2170 061E                                 l2162 060A  
                               l2146 05C6                                 l2138 059F  
                               l2090 02D1                                 l2082 0288  
                               l2074 06E1                                 l2066 06A7  
                               l1612 0747                                 l1604 0740  
                               l1700 0D1E                                 l2180 0679  
                               l2172 0627                                 l2164 060D  
                               l2156 05E8                                 l2148 05CF  
                               l2092 02D7                                 l2084 0293  
                               l2076 06ED                                 l2068 06A9  
                               l1630 0773                                 l1614 074B  
                               l1550 0ED5                                 l1542 0EC6  
                               l1702 0D1F                                 l2174 0631  
                               l2166 0612                                 l2158 05EE  
                               l1710 0D25                                 l2094 02D9  
                               l2086 0297                                 l2078 06EF  
                               l2190 0E3E                                 l2182 0E24  
                               l1800 0F76                                 l1640 0781  
                               l1624 075D                                 l1616 0755  
                               l1560 0EDF                                 l1552 0ED9  
                               l1544 0EC8                                 l1720 0E09  
                               l1704 0D20                                 l2176 0649  
                               l2168 0616                                 l1712 0D26  
                               l2096 02E4                                 l2088 02AE  
                               l2192 0E41                                 l2184 0E27  
                               l1810 0F91                                 l1802 0F7A  
                               l1626 0765                                 l1618 075B  
                               l1562 0EF7                                 l1554 0EDB  
                               l1546 0ECC                                 l1570 0FAD  
                               l1730 0E1B                                 l1722 0E0D  
                               l2178 0661                                 l1706 0D22  
                               l2098 02E8                                 l1642 0DD4  
                               l1714 0D5F                                 l2194 0E44  
                               l2186 0E2A                                 l1740 078C  
                               l1804 0F7E                                 l1812 0F97  
                               l1636 0775                                 l1628 0769  
                               l1564 0EFC                                 l1548 0ED1  
                               l1580 0FD3                                 l1572 0FB6  
                               l1900 0D3B                                 l1732 0E1C  
                               l1724 0E0F                                 l1708 0D24  
                               l1660 0DAE                                 l1644 0DD9  
                               l1652 0DF2                                 l1820 0E89  
                               l2196 0E4B                                 l2188 0E3B  
                               l1750 07A0                                 l1742 0790  
                               l1814 0F9C                                 l1806 0F88  
                               l1638 077D                                 l1590 0725  
                               l1566 0F00                                 l1582 0FDA  
                               l1574 0FBF                                 l1902 0D42  
                               l1734 0E1D                                 l1726 0E13  
                               l1718 0E00                                 l1662 0DB3  
                               l1670 0DCC                                 l1646 0DEA  
                               l1910 0D4F                                 l1830 0E9E  
                               l1822 0E8C                                 l2198 0E4F  
                               l1760 07B4                                 l1752 07A4  
                               l1744 0795                                 l1816 0FA1  
                               l1808 0F8C                                 l1592 072B  
                               l1584 0FED                                 l1576 0FC5  
                               l1568 0FA6                                 l1904 0D49  
                               l1736 0E22                                 l1728 0E17  
                               l1680 0D8D                                 l1664 0DC4  
                               l1648 0DED                                 l1656 0DF7  
                               l1920 0D55                                 l1912 0D50  
                               l1840 0EBB                                 l1832 0EA2  
                               l1824 0E92                                 l1770 07D0  
                               l1762 07B8                                 l1754 07A6  
                               l1746 0797                                 l1738 078B  
                               l1586 071F                                 l1578 0FCC  
                               l1682 0D9E                                 l1666 0DC7  
                               l1674 0DD1                                 l1922 0D56  
                               l1914 0D52                                 l1906 0D4B  
                               l1834 0EB1                                 l1826 0E95  
                               l1842 0EC1                                 l1850 0E5E  
                               l1930 0064                                 l1772 07D5  
                               l1764 07BC                                 l1756 07AC  
                               l1748 079B                                 l1588 071F  
                               l1684 0DA1                                 l1692 0DAB  
                               l1916 0D53                                 l1908 0D4D  
                               l1836 0EB5                                 l1828 0E9A  
                               l1860 0E79                                 l1852 0E63  
                               l1940 0083                                 l1932 006F  
                               l1924 0052                                 l1766 07CB  
                               l1758 07AF                                 l1774 07DB  
                               l1790 0F5F                                 l1782 0F53  
                               l1598 072D                                 l1870 0F10  
                               l1678 0D88                                 l1918 0D54  
                               l1838 0EB6                                 l1862 0E7E  
                               l1854 0E67                                 l1846 0E55  
                               l1950 00A6                                 l1942 008E  
                               l1934 0073                                 l1926 0055  
                               l1776 07E0                                 l1768 07CF  
                               l1792 0F63                                 l1784 0F54  
                               l1696 0D34                                 l1880 0F35  
                               l1872 0F1A                                 l1688 0DA6  
                               l1856 0E6B                                 l1848 0E5B  
                               l1864 0E84                                 l1952 00AE  
                               l1960 00C6                                 l1944 0099  
                               l1936 0079                                 l1928 0060  
                               l1778 07E5                                 l1794 0F68  
                               l1786 0F58                                 l1890 0D6D  
                               l1882 0F37                                 l1874 0F1C  
                               l1698 0D1C                                 l1858 0E75  
                               l1970 00FE                                 l1962 00CA  
                               l1954 00B0                                 l1946 009D  
                               l1938 007F                                 l1796 0F6E  
                               l1788 0F5D                                 l1892 0D77  
                               l1884 0F43                                 l1876 0F27  
                               l1868 0F08                                 l1980 0131  
                               l1972 0106                                 l1964 00D2  
                               l1956 00B4                                 l1948 00A2  
                               l1798 0F71                                 l1894 0D79  
                               l1886 0F45                                 l1878 0F29  
                               l1990 01A8                                 l1982 0154  
                               l1974 0108                                 l1966 00DB  
                               l1958 00BC                                 l1896 0D85  
                               l1888 0F50                                 l1992 01BF  
                               l1984 0165                                 l1976 0110  
                               l1968 00E6                                 l1898 0D16  
                               l1994 01D7                                 l1986 0187  
                               l1978 0119                                 l1996 01FA  
                               l1988 0198                                 l1998 020B  
                               u1000 0FCC                                 u1001 0FCB  
                               u1010 0FD3                                 u1011 0FD2  
                               u1020 0FDA                                 u1100 0DD9  
                               u1021 0FD9                                 u1101 0DD8  
                               u1030 0725                                 u1110 0DEA  
                               u1031 0724                                 u1111 0DE9  
                               u1200 0790                                 u1040 072B  
                               u1120 0DB3                                 u1201 078F  
                               u1041 072A                                 u1121 0DB2  
                               u1210 079B                                 u1050 073F  
                               u1130 0DC4                                 u1211 079A  
                               u1051 073E                                 u1131 0DC3  
                               u1115 0DE6                                 u1220 07AC  
                               u1300 0F58                                 u1060 0754  
                               u1140 0D8D                                 u1221 07AB  
                               u1301 0F57                                 u1061 0753  
                               u1141 0D8C                                 u1310 0F63  
                               u1070 075B                                 u1150 0D9E  
                               u1311 0F62                                 u1071 075A  
                               u1151 0D9D                                 u1135 0DC0  
                               u1240 07BC                                 u1320 0F6E  
                               u1080 0772                                 u1160 0D5F  
                               u1241 07BB                                 u1321 0F6D  
                               u1081 0771                                 u1161 0D5E  
                               u1090 078A                                 u1170 0E00  
                               u1410 0EA2                                 u1235 07B0  
                               u1091 0789                                 u1171 0DFF  
                               u1155 0D9A                                 u1411 0EA1  
                               u1260 07CB                                 u1340 0F7E  
                               u1180 0E13                                 u1261 07CA  
                               u1341 0F7D                                 u1181 0E12  
                               u1405 0E96                                 u1350 0F88  
                               u1190 0E22                                 u1430 0EB1  
                               u1510 0E84                                 u1255 07BD  
                               u1351 0F87                                 u1335 0F72  
                               u1191 0E21                                 u1431 0EB0  
                               u1511 0E83                                 u1280 07DB  
                               u1600 0467                                 u1520 0D77  
                               u1281 07DA                                 u1265 07C7  
                               u1601 0466                                 u1521 0D76  
                               u1425 0EA3                                 u1505 0E7A  
                               u1290 07E0                                 u1370 0F97  
                               u1610 047F                                 u1450 0EC1  
                               u1530 0079                                 u1291 07DF  
                               u1275 07D1                                 u1371 0F96  
                               u1355 0F84                                 u1611 047E  
                               u1451 0EC0                                 u1435 0EAD  
                               u1531 0078                                 u1380 0F9C  
                               u1620 049A                                 u1700 02D7  
                               u1460 0E5B                                 u1540 007F  
                               u1381 0F9B                                 u1365 0F8D  
                               u1621 0499                                 u1605 0463  
                               u1701 02D6                                 u1445 0EB7  
                               u1461 0E5A                                 u1541 007E  
                               u1630 058E                                 u1710 0330  
                               u1390 0E92                                 u1631 058D  
                               u1711 032F                                 u1391 0E91  
                               u1720 033A                                 u1640 069B  
                               u1480 0E6B                                 u1560 00AE  
                               u1625 0496                                 u1721 0339  
                               u1641 069A                                 u1481 0E6A  
                               u1561 00AD                                 u1730 03C4  
                               u1650 06A7                                 u1490 0E75  
                               u1731 03C3                                 u1715 032C  
                               u1651 06A6                                 u1491 0E74  
                               u1475 0E5F                                 u1555 009E  
                               u1740 05A8                                 u1660 06E1  
                               u1580 0106                                 u1741 05A7  
                               u1725 0336                                 u1661 06E0  
                               u1581 0105                                 u1750 05DE  
                               u1670 06ED                                 u1590 027D  
                               u1751 05DD                                 u1671 06EC  
                               u1495 0E71                                 u1591 027C  
                               u1575 00F6                                 u1760 05FC  
                               u1680 0293                                 u1761 05FB  
                               u1681 0292                                 u1770 060A  
                               u1690 02D1                                 u1771 0609  
                               u1691 02D0                                 u1780 0E4B  
                               u1765 05F8                                 u1685 028F  
                               u1781 0E4A                                 u1775 0606  
                               u1695 02CD                    _last_minutos_temp 0030  
                               _TMR0 0015                       ??_eeprom_write 0072  
                       __CFG_WRT$OFF 0000                                 _main 0E24  
                               fsr0h 0005                                 fsr1h 0007  
                               indf0 0000                                 fsr0l 0004  
                               indf1 0001                                 fsr1l 0006  
                               btemp 007E                __size_of_output_relay 0007  
                               start 0038                       ?_update_eeprom 0070  
             __end_of_max7219_config 0F53               __end_of_max7219_brillo 0D88  
             __end_of_max7219_points 078B                        __CFG_PLLEN$ON 0000  
                 max7219_brillo@data 0056                       ??_display_init 005F  
                              ?_main 0070                      __end_of___awdiv 07EA  
                              _EEADR 0191                        __CFG_WDTE$OFF 0000  
                    __end_of___awmod 0FA6                      ___awdiv@divisor 0071  
                    __end_of___lwdiv 0EC6                                i1l219 0036  
                    __end_of___lwmod 0E89                      ___awdiv@counter 0076  
                      __CFG_PWRTE$ON 0000                       __CFG_FCMEN$OFF 0000  
                       _output_relay 0D34               __size_of_output_config 0007  
                              _myISR 0004                       __CFG_BOREN$OFF 0000  
                              status 0003                                wtemp0 007E  
         __size_of_oscillator_config 0009                       __CFG_MCLRE$OFF 0000  
                    __initialization 003A                         __end_of_main 0E55  
                    ?_max7219_config 0070                      ?_max7219_brillo 0056  
          __size_of_proceso_detenido 00F3                      ?_max7219_points 0071  
                             ??_main 007D   __end_of_proceso_subir_bajar_tiempo 071F  
         _proceso_subir_bajar_tiempo 0692                      max7219_points@i 0076  
                             ?_myISR 0070                               _EEDATA 0193  
                             _EECON1 0195                               _EECON2 0196  
                   ___awdiv@dividend 0073                               i1l2200 0006  
                             i1l2210 0022                               i1l2202 000A  
                             i1l2212 0025                               i1l2204 000E  
                             i1l2214 0030                               i1l2206 0010  
                             i1l2216 0034                               i1l2208 0011  
                             u180_20 000E                               u180_21 000D  
                             u181_20 0022                               u181_21 0021  
                             u181_25 001E                               u182_20 0030  
                             u182_21 002F                               u179_20 000A  
                             u179_21 0009                      ??_update_eeprom 005F  
                 _last_segundos_temp 002E                    _max7219_writeChar 0FA6  
               __size_of_eeprom_read 0015                        _output_config 0D3B  
                 _update_eeprom$1106 0067                   _update_eeprom$1107 0061  
                 ?_max7219_writeChar 0059                            ??___awdiv 0075  
                          ??___awmod 0075                            ??___lwdiv 007B  
                          ??___lwmod 0075                     ___awdiv@quotient 0078  
                    ___awmod@divisor 0071                 __end_of_eeprom_write 0E24  
                    ___awmod@counter 0076                               myISR@f 0024  
                ??_max7219_writeChar 005D                    _input_pulsador_ok 0D88  
                      display_init@i 0060                        display_init@j 0062  
                 ?_input_pulsador_ok 0071                         ?_proceso_run 0070  
               max7219_points@points 0071                  ??_input_pulsador_ok 0073  
            __end_of__initialization 004E                      _timer_0_disable 0D22  
                    eeprom_read@addr 0074                 __end_of_display_init 059F  
          __end_of_max7219_writeChar 1000                       ?_output_config 0070  
                     __pcstackCOMMON 0070                         __pidataBANK0 07EA  
                      __end_of_myISR 0038                        ?_input_config 0070  
          __end_of_input_pulsador_ok 0DAE                       _OPTION_REGbits 0095  
                  eeprom_write@value 0071                              ??_myISR 0070  
           __size_of___max7219_write 0042                           __pbssBANK0 0020  
                         __pmaintext 0E24                     _proceso_detenido 059F  
      __size_of_input_pulsador_bajar 0026                           __pintentry 0004  
                     ??_input_config 0071        __size_of_input_pulsador_subir 0026  
            __end_of_timer_0_disable 0D28           __size_of_max7219_writeChar 005A  
                   ??_max7219_config 007D                     ??_max7219_brillo 007D  
                    ??_output_config 0071                     ??_max7219_points 0075  
              __size_of_eeprom_write 002A                              ___awdiv 078B  
                            ___awmod 0F53                              ___lwdiv 0E89  
                            ___lwmod 0E55                      __CFG_STVREN$OFF 0000  
       input_pulsador_subir@contador 003E           __size_of_input_pulsador_ok 0026  
                            __ptext1 0052                              __ptext2 0D58  
                            __ptext3 0E55                              __ptext4 0E89  
                            __ptext5 0D4B                              __ptext6 0692  
                            __ptext7 0DD4                              __ptext8 0DAE  
                            __ptext9 0288              __size_of_timer_0_enable 0006  
        ?_proceso_subir_bajar_tiempo 0070                     ___awmod@dividend 0073  
            __size_of_timer_0_config 000D                              _proceso 002C  
                            clrloop0 0D29                __size_of_display_init 0164  
               end_of_initialization 004E                              init_ram 0D2E  
                       _eeprom_write 0DFA                              initloop 0D2F  
               __size_of_proceso_run 01B3                    ??___max7219_write 0075  
               ___max7219_write@data 0073                max7219_writeChar@data 005B  
           ___max7219_write@dataSend 0079                            _PORTAbits 000C  
                          _PORTCbits 000E                         _display_init 043B  
                   __CFG_FOSC$INTOSC 0000                          ___digitos_1 004B  
                        ___digitos_2 0040                            _TRISAbits 008C  
                          _TRISCbits 008E                     ?_timer_0_disable 0070  
               __end_of_input_config 0D1C                        ??_eeprom_read 0071  
              __end_of_update_eeprom 0288                    update_eeprom@var1 0063  
                  update_eeprom@var2 0065                  start_initialization 003A  
           __end_of_proceso_detenido 0692                  __end_of_eeprom_read 0D6D  
                        __pdataBANK0 0040                  max7219_points@nivel 0073  
                     _timer_0_enable 0D1C                       _timer_0_config 0D4B  
                          ___latbits 0001                        __pcstackBANK0 0056  
                      ?_output_relay 0071         __end_of_input_pulsador_bajar 0DD4  
       __end_of_input_pulsador_subir 0DFA                     eeprom_write@addr 0074  
                   ___lwdiv@dividend 0079                             ?___awdiv 0071  
                           ?___awmod 0071                             ?___lwdiv 0077  
                           ?___lwmod 0071                            _encendido 0026  
             __end_of_timer_0_enable 0D22               __end_of_timer_0_config 0D58  
                      output_relay@d 0071                __size_of_input_config 0006  
                     ??_output_relay 0073                      ___max7219_write 0EC6  
                   ___lwdiv@quotient 0056                       __size_of_myISR 0034  
                      _segundos_temp 0032                             _LATAbits 010C  
                           _LATCbits 010E                            clear_ram0 0D28  
                        _eeprom_read 0D58                            _veces_uso 0028  
              __end_of_output_config 0D42              ___max7219_write@address 0071  
               max7219_writeChar@pos 0059                         _input_config 0D16  
                    ?_timer_0_enable 0070                      ?_timer_0_config 0070  
          input_pulsador_ok@contador 003A                        ??_proceso_run 007D  
                         _EECON1bits 0195                         _minutos_temp 0034  
                      _flag_segundos 002A                    ___max7219_write@i 007B  
               _input_pulsador_bajar 0DAE                     __size_of___awdiv 005F  
                   __size_of___awmod 0053                     __size_of___lwdiv 003D  
                   __size_of___lwmod 0034                 _input_pulsador_subir 0DD4  
            __size_of_max7219_config 004B              __size_of_max7219_brillo 001B  
            __end_of___max7219_write 0F08              __size_of_max7219_points 006C  
                    ___lwdiv@divisor 0077                      ___lwdiv@counter 0058  
                           __ptext10 0D22                             __ptext11 059F  
                           __ptext20 043B                             __ptext12 0D1C  
                           __ptext21 0D34                             __ptext13 0D88  
                           __ptext22 0FA6                             __ptext14 0DFA  
                           __ptext23 0EC6                             __ptext15 0D3B  
                           __ptext24 071F                             __ptext16 0D42  
                           __ptext25 0F53                             __ptext17 0F08  
                           __ptext26 078B                             __ptext18 0D6D  
                           __ptext19 0D16                    ?_proceso_detenido 0070  
                 ??_proceso_detenido 005F                        __size_of_main 0031  
                       _segundos_set 0036             __size_of_timer_0_disable 0006  
                __end_of_proceso_run 043B                 __end_of_output_relay 0D3B  
              ?_input_pulsador_bajar 0071                             int$flags 007E  
              ?_input_pulsador_subir 0071         input_pulsador_bajar@contador 003C  
                         _INTCONbits 000B                          _minutos_set 0038  
             __size_of_update_eeprom 0236                             intlevel1 0000  
                   ___lwmod@dividend 0073                    __CFG_CLKOUTEN$OFF 0000  
                         _OSCCONbits 0099                    _oscillator_config 0D42  
                 ?_oscillator_config 0070                     ?___max7219_write 0071  
                ??_oscillator_config 0071                      ___lwmod@divisor 0071  
                    ___lwmod@counter 0076         ??_proceso_subir_bajar_tiempo 007D  
                        _proceso_run 0288                        ?_eeprom_write 0071  
                         _STATUSbits 0003                         ?_eeprom_read 0070  
          __end_of_oscillator_config 0D4B               ??_input_pulsador_bajar 0073  
